
ctarget：     文件格式 elf64-x86-64


Disassembly of section .init:

0000000000400b58 <_init>:
  400b58:	48 83 ec 08          	sub    $0x8,%rsp
  400b5c:	e8 5b 02 00 00       	callq  400dbc <call_gmon_start>
  400b61:	48 83 c4 08          	add    $0x8,%rsp
  400b65:	c3                   	retq   

Disassembly of section .plt:

0000000000400b70 <strcasecmp@plt-0x10>:
  400b70:	ff 35 5a 3a 20 00    	pushq  0x203a5a(%rip)        # 6045d0 <_GLOBAL_OFFSET_TABLE_+0x8>
  400b76:	ff 25 5c 3a 20 00    	jmpq   *0x203a5c(%rip)        # 6045d8 <_GLOBAL_OFFSET_TABLE_+0x10>
  400b7c:	0f 1f 40 00          	nopl   0x0(%rax)

0000000000400b80 <strcasecmp@plt>:
  400b80:	ff 25 5a 3a 20 00    	jmpq   *0x203a5a(%rip)        # 6045e0 <_GLOBAL_OFFSET_TABLE_+0x18>
  400b86:	68 00 00 00 00       	pushq  $0x0
  400b8b:	e9 e0 ff ff ff       	jmpq   400b70 <_init+0x18>

0000000000400b90 <__errno_location@plt>:
  400b90:	ff 25 52 3a 20 00    	jmpq   *0x203a52(%rip)        # 6045e8 <_GLOBAL_OFFSET_TABLE_+0x20>
  400b96:	68 01 00 00 00       	pushq  $0x1
  400b9b:	e9 d0 ff ff ff       	jmpq   400b70 <_init+0x18>

0000000000400ba0 <srandom@plt>:
  400ba0:	ff 25 4a 3a 20 00    	jmpq   *0x203a4a(%rip)        # 6045f0 <_GLOBAL_OFFSET_TABLE_+0x28>
  400ba6:	68 02 00 00 00       	pushq  $0x2
  400bab:	e9 c0 ff ff ff       	jmpq   400b70 <_init+0x18>

0000000000400bb0 <strncmp@plt>:
  400bb0:	ff 25 42 3a 20 00    	jmpq   *0x203a42(%rip)        # 6045f8 <_GLOBAL_OFFSET_TABLE_+0x30>
  400bb6:	68 03 00 00 00       	pushq  $0x3
  400bbb:	e9 b0 ff ff ff       	jmpq   400b70 <_init+0x18>

0000000000400bc0 <strcpy@plt>:
  400bc0:	ff 25 3a 3a 20 00    	jmpq   *0x203a3a(%rip)        # 604600 <_GLOBAL_OFFSET_TABLE_+0x38>
  400bc6:	68 04 00 00 00       	pushq  $0x4
  400bcb:	e9 a0 ff ff ff       	jmpq   400b70 <_init+0x18>

0000000000400bd0 <puts@plt>:
  400bd0:	ff 25 32 3a 20 00    	jmpq   *0x203a32(%rip)        # 604608 <_GLOBAL_OFFSET_TABLE_+0x40>
  400bd6:	68 05 00 00 00       	pushq  $0x5
  400bdb:	e9 90 ff ff ff       	jmpq   400b70 <_init+0x18>

0000000000400be0 <write@plt>:
  400be0:	ff 25 2a 3a 20 00    	jmpq   *0x203a2a(%rip)        # 604610 <_GLOBAL_OFFSET_TABLE_+0x48>
  400be6:	68 06 00 00 00       	pushq  $0x6
  400beb:	e9 80 ff ff ff       	jmpq   400b70 <_init+0x18>

0000000000400bf0 <mmap@plt>:
  400bf0:	ff 25 22 3a 20 00    	jmpq   *0x203a22(%rip)        # 604618 <_GLOBAL_OFFSET_TABLE_+0x50>
  400bf6:	68 07 00 00 00       	pushq  $0x7
  400bfb:	e9 70 ff ff ff       	jmpq   400b70 <_init+0x18>

0000000000400c00 <printf@plt>:
  400c00:	ff 25 1a 3a 20 00    	jmpq   *0x203a1a(%rip)        # 604620 <_GLOBAL_OFFSET_TABLE_+0x58>
  400c06:	68 08 00 00 00       	pushq  $0x8
  400c0b:	e9 60 ff ff ff       	jmpq   400b70 <_init+0x18>

0000000000400c10 <memset@plt>:
  400c10:	ff 25 12 3a 20 00    	jmpq   *0x203a12(%rip)        # 604628 <_GLOBAL_OFFSET_TABLE_+0x60>
  400c16:	68 09 00 00 00       	pushq  $0x9
  400c1b:	e9 50 ff ff ff       	jmpq   400b70 <_init+0x18>

0000000000400c20 <alarm@plt>:
  400c20:	ff 25 0a 3a 20 00    	jmpq   *0x203a0a(%rip)        # 604630 <_GLOBAL_OFFSET_TABLE_+0x68>
  400c26:	68 0a 00 00 00       	pushq  $0xa
  400c2b:	e9 40 ff ff ff       	jmpq   400b70 <_init+0x18>

0000000000400c30 <close@plt>:
  400c30:	ff 25 02 3a 20 00    	jmpq   *0x203a02(%rip)        # 604638 <_GLOBAL_OFFSET_TABLE_+0x70>
  400c36:	68 0b 00 00 00       	pushq  $0xb
  400c3b:	e9 30 ff ff ff       	jmpq   400b70 <_init+0x18>

0000000000400c40 <read@plt>:
  400c40:	ff 25 fa 39 20 00    	jmpq   *0x2039fa(%rip)        # 604640 <_GLOBAL_OFFSET_TABLE_+0x78>
  400c46:	68 0c 00 00 00       	pushq  $0xc
  400c4b:	e9 20 ff ff ff       	jmpq   400b70 <_init+0x18>

0000000000400c50 <__libc_start_main@plt>:
  400c50:	ff 25 f2 39 20 00    	jmpq   *0x2039f2(%rip)        # 604648 <_GLOBAL_OFFSET_TABLE_+0x80>
  400c56:	68 0d 00 00 00       	pushq  $0xd
  400c5b:	e9 10 ff ff ff       	jmpq   400b70 <_init+0x18>

0000000000400c60 <memcpy@plt>:
  400c60:	ff 25 ea 39 20 00    	jmpq   *0x2039ea(%rip)        # 604650 <_GLOBAL_OFFSET_TABLE_+0x88>
  400c66:	68 0e 00 00 00       	pushq  $0xe
  400c6b:	e9 00 ff ff ff       	jmpq   400b70 <_init+0x18>

0000000000400c70 <signal@plt>:
  400c70:	ff 25 e2 39 20 00    	jmpq   *0x2039e2(%rip)        # 604658 <_GLOBAL_OFFSET_TABLE_+0x90>
  400c76:	68 0f 00 00 00       	pushq  $0xf
  400c7b:	e9 f0 fe ff ff       	jmpq   400b70 <_init+0x18>

0000000000400c80 <gethostbyname@plt>:
  400c80:	ff 25 da 39 20 00    	jmpq   *0x2039da(%rip)        # 604660 <_GLOBAL_OFFSET_TABLE_+0x98>
  400c86:	68 10 00 00 00       	pushq  $0x10
  400c8b:	e9 e0 fe ff ff       	jmpq   400b70 <_init+0x18>

0000000000400c90 <fprintf@plt>:
  400c90:	ff 25 d2 39 20 00    	jmpq   *0x2039d2(%rip)        # 604668 <_GLOBAL_OFFSET_TABLE_+0xa0>
  400c96:	68 11 00 00 00       	pushq  $0x11
  400c9b:	e9 d0 fe ff ff       	jmpq   400b70 <_init+0x18>

0000000000400ca0 <strtol@plt>:
  400ca0:	ff 25 ca 39 20 00    	jmpq   *0x2039ca(%rip)        # 604670 <_GLOBAL_OFFSET_TABLE_+0xa8>
  400ca6:	68 12 00 00 00       	pushq  $0x12
  400cab:	e9 c0 fe ff ff       	jmpq   400b70 <_init+0x18>

0000000000400cb0 <time@plt>:
  400cb0:	ff 25 c2 39 20 00    	jmpq   *0x2039c2(%rip)        # 604678 <_GLOBAL_OFFSET_TABLE_+0xb0>
  400cb6:	68 13 00 00 00       	pushq  $0x13
  400cbb:	e9 b0 fe ff ff       	jmpq   400b70 <_init+0x18>

0000000000400cc0 <random@plt>:
  400cc0:	ff 25 ba 39 20 00    	jmpq   *0x2039ba(%rip)        # 604680 <_GLOBAL_OFFSET_TABLE_+0xb8>
  400cc6:	68 14 00 00 00       	pushq  $0x14
  400ccb:	e9 a0 fe ff ff       	jmpq   400b70 <_init+0x18>

0000000000400cd0 <_IO_getc@plt>:
  400cd0:	ff 25 b2 39 20 00    	jmpq   *0x2039b2(%rip)        # 604688 <_GLOBAL_OFFSET_TABLE_+0xc0>
  400cd6:	68 15 00 00 00       	pushq  $0x15
  400cdb:	e9 90 fe ff ff       	jmpq   400b70 <_init+0x18>

0000000000400ce0 <__isoc99_sscanf@plt>:
  400ce0:	ff 25 aa 39 20 00    	jmpq   *0x2039aa(%rip)        # 604690 <_GLOBAL_OFFSET_TABLE_+0xc8>
  400ce6:	68 16 00 00 00       	pushq  $0x16
  400ceb:	e9 80 fe ff ff       	jmpq   400b70 <_init+0x18>

0000000000400cf0 <munmap@plt>:
  400cf0:	ff 25 a2 39 20 00    	jmpq   *0x2039a2(%rip)        # 604698 <_GLOBAL_OFFSET_TABLE_+0xd0>
  400cf6:	68 17 00 00 00       	pushq  $0x17
  400cfb:	e9 70 fe ff ff       	jmpq   400b70 <_init+0x18>

0000000000400d00 <bcopy@plt>:
  400d00:	ff 25 9a 39 20 00    	jmpq   *0x20399a(%rip)        # 6046a0 <_GLOBAL_OFFSET_TABLE_+0xd8>
  400d06:	68 18 00 00 00       	pushq  $0x18
  400d0b:	e9 60 fe ff ff       	jmpq   400b70 <_init+0x18>

0000000000400d10 <fopen@plt>:
  400d10:	ff 25 92 39 20 00    	jmpq   *0x203992(%rip)        # 6046a8 <_GLOBAL_OFFSET_TABLE_+0xe0>
  400d16:	68 19 00 00 00       	pushq  $0x19
  400d1b:	e9 50 fe ff ff       	jmpq   400b70 <_init+0x18>

0000000000400d20 <getopt@plt>:
  400d20:	ff 25 8a 39 20 00    	jmpq   *0x20398a(%rip)        # 6046b0 <_GLOBAL_OFFSET_TABLE_+0xe8>
  400d26:	68 1a 00 00 00       	pushq  $0x1a
  400d2b:	e9 40 fe ff ff       	jmpq   400b70 <_init+0x18>

0000000000400d30 <strtoul@plt>:
  400d30:	ff 25 82 39 20 00    	jmpq   *0x203982(%rip)        # 6046b8 <_GLOBAL_OFFSET_TABLE_+0xf0>
  400d36:	68 1b 00 00 00       	pushq  $0x1b
  400d3b:	e9 30 fe ff ff       	jmpq   400b70 <_init+0x18>

0000000000400d40 <gethostname@plt>:
  400d40:	ff 25 7a 39 20 00    	jmpq   *0x20397a(%rip)        # 6046c0 <_GLOBAL_OFFSET_TABLE_+0xf8>
  400d46:	68 1c 00 00 00       	pushq  $0x1c
  400d4b:	e9 20 fe ff ff       	jmpq   400b70 <_init+0x18>

0000000000400d50 <sprintf@plt>:
  400d50:	ff 25 72 39 20 00    	jmpq   *0x203972(%rip)        # 6046c8 <_GLOBAL_OFFSET_TABLE_+0x100>
  400d56:	68 1d 00 00 00       	pushq  $0x1d
  400d5b:	e9 10 fe ff ff       	jmpq   400b70 <_init+0x18>

0000000000400d60 <exit@plt>:
  400d60:	ff 25 6a 39 20 00    	jmpq   *0x20396a(%rip)        # 6046d0 <_GLOBAL_OFFSET_TABLE_+0x108>
  400d66:	68 1e 00 00 00       	pushq  $0x1e
  400d6b:	e9 00 fe ff ff       	jmpq   400b70 <_init+0x18>

0000000000400d70 <connect@plt>:
  400d70:	ff 25 62 39 20 00    	jmpq   *0x203962(%rip)        # 6046d8 <_GLOBAL_OFFSET_TABLE_+0x110>
  400d76:	68 1f 00 00 00       	pushq  $0x1f
  400d7b:	e9 f0 fd ff ff       	jmpq   400b70 <_init+0x18>

0000000000400d80 <socket@plt>:
  400d80:	ff 25 5a 39 20 00    	jmpq   *0x20395a(%rip)        # 6046e0 <_GLOBAL_OFFSET_TABLE_+0x118>
  400d86:	68 20 00 00 00       	pushq  $0x20
  400d8b:	e9 e0 fd ff ff       	jmpq   400b70 <_init+0x18>

Disassembly of section .text:

0000000000400d90 <_start>:
  400d90:	31 ed                	xor    %ebp,%ebp
  400d92:	49 89 d1             	mov    %rdx,%r9
  400d95:	5e                   	pop    %rsi
  400d96:	48 89 e2             	mov    %rsp,%rdx
  400d99:	48 83 e4 f0          	and    $0xfffffffffffffff0,%rsp
  400d9d:	50                   	push   %rax
  400d9e:	54                   	push   %rsp
  400d9f:	49 c7 c0 f0 2a 40 00 	mov    $0x402af0,%r8
  400da6:	48 c7 c1 00 2b 40 00 	mov    $0x402b00,%rcx
  400dad:	48 c7 c7 79 10 40 00 	mov    $0x401079,%rdi
  400db4:	e8 97 fe ff ff       	callq  400c50 <__libc_start_main@plt>
  400db9:	f4                   	hlt    
  400dba:	90                   	nop
  400dbb:	90                   	nop

0000000000400dbc <call_gmon_start>:
  400dbc:	48 83 ec 08          	sub    $0x8,%rsp
  400dc0:	48 8b 05 f9 37 20 00 	mov    0x2037f9(%rip),%rax        # 6045c0 <_DYNAMIC+0x1d0>
  400dc7:	48 85 c0             	test   %rax,%rax
  400dca:	74 02                	je     400dce <call_gmon_start+0x12>
  400dcc:	ff d0                	callq  *%rax
  400dce:	48 83 c4 08          	add    $0x8,%rsp
  400dd2:	c3                   	retq   
  400dd3:	66 2e 0f 1f 84 00 00 	nopw   %cs:0x0(%rax,%rax,1)
  400dda:	00 00 00 
  400ddd:	0f 1f 00             	nopl   (%rax)

0000000000400de0 <deregister_tm_clones>:
  400de0:	b8 b7 4a 60 00       	mov    $0x604ab7,%eax
  400de5:	55                   	push   %rbp
  400de6:	48 2d b0 4a 60 00    	sub    $0x604ab0,%rax
  400dec:	48 83 f8 0e          	cmp    $0xe,%rax
  400df0:	48 89 e5             	mov    %rsp,%rbp
  400df3:	76 1b                	jbe    400e10 <deregister_tm_clones+0x30>
  400df5:	b8 00 00 00 00       	mov    $0x0,%eax
  400dfa:	48 85 c0             	test   %rax,%rax
  400dfd:	74 11                	je     400e10 <deregister_tm_clones+0x30>
  400dff:	5d                   	pop    %rbp
  400e00:	bf b0 4a 60 00       	mov    $0x604ab0,%edi
  400e05:	ff e0                	jmpq   *%rax
  400e07:	66 0f 1f 84 00 00 00 	nopw   0x0(%rax,%rax,1)
  400e0e:	00 00 
  400e10:	5d                   	pop    %rbp
  400e11:	c3                   	retq   
  400e12:	66 66 66 66 66 2e 0f 	data32 data32 data32 data32 nopw %cs:0x0(%rax,%rax,1)
  400e19:	1f 84 00 00 00 00 00 

0000000000400e20 <register_tm_clones>:
  400e20:	be b0 4a 60 00       	mov    $0x604ab0,%esi
  400e25:	55                   	push   %rbp
  400e26:	48 81 ee b0 4a 60 00 	sub    $0x604ab0,%rsi
  400e2d:	48 c1 fe 03          	sar    $0x3,%rsi
  400e31:	48 89 e5             	mov    %rsp,%rbp
  400e34:	48 89 f0             	mov    %rsi,%rax
  400e37:	48 c1 e8 3f          	shr    $0x3f,%rax
  400e3b:	48 01 c6             	add    %rax,%rsi
  400e3e:	48 d1 fe             	sar    %rsi
  400e41:	74 15                	je     400e58 <register_tm_clones+0x38>
  400e43:	b8 00 00 00 00       	mov    $0x0,%eax
  400e48:	48 85 c0             	test   %rax,%rax
  400e4b:	74 0b                	je     400e58 <register_tm_clones+0x38>
  400e4d:	5d                   	pop    %rbp
  400e4e:	bf b0 4a 60 00       	mov    $0x604ab0,%edi
  400e53:	ff e0                	jmpq   *%rax
  400e55:	0f 1f 00             	nopl   (%rax)
  400e58:	5d                   	pop    %rbp
  400e59:	c3                   	retq   
  400e5a:	66 0f 1f 44 00 00    	nopw   0x0(%rax,%rax,1)

0000000000400e60 <__do_global_dtors_aux>:
  400e60:	80 3d 89 3c 20 00 00 	cmpb   $0x0,0x203c89(%rip)        # 604af0 <completed.6568>
  400e67:	75 11                	jne    400e7a <__do_global_dtors_aux+0x1a>
  400e69:	55                   	push   %rbp
  400e6a:	48 89 e5             	mov    %rsp,%rbp
  400e6d:	e8 6e ff ff ff       	callq  400de0 <deregister_tm_clones>
  400e72:	5d                   	pop    %rbp
  400e73:	c6 05 76 3c 20 00 01 	movb   $0x1,0x203c76(%rip)        # 604af0 <completed.6568>
  400e7a:	f3 c3                	repz retq 
  400e7c:	0f 1f 40 00          	nopl   0x0(%rax)

0000000000400e80 <frame_dummy>:
  400e80:	bf e8 43 60 00       	mov    $0x6043e8,%edi
  400e85:	48 83 3f 00          	cmpq   $0x0,(%rdi)
  400e89:	75 05                	jne    400e90 <frame_dummy+0x10>
  400e8b:	eb 93                	jmp    400e20 <register_tm_clones>
  400e8d:	0f 1f 00             	nopl   (%rax)
  400e90:	b8 00 00 00 00       	mov    $0x0,%eax
  400e95:	48 85 c0             	test   %rax,%rax
  400e98:	74 f1                	je     400e8b <frame_dummy+0xb>
  400e9a:	55                   	push   %rbp
  400e9b:	48 89 e5             	mov    %rsp,%rbp
  400e9e:	ff d0                	callq  *%rax
  400ea0:	5d                   	pop    %rbp
  400ea1:	e9 7a ff ff ff       	jmpq   400e20 <register_tm_clones>

0000000000400ea6 <usage>:
  400ea6:	48 83 ec 08          	sub    $0x8,%rsp
  400eaa:	48 89 fe             	mov    %rdi,%rsi
  400ead:	83 3d 74 3c 20 00 00 	cmpl   $0x0,0x203c74(%rip)        # 604b28 <is_checker>
  400eb4:	74 39                	je     400eef <usage+0x49>
  400eb6:	bf b0 2b 40 00       	mov    $0x402bb0,%edi
  400ebb:	b8 00 00 00 00       	mov    $0x0,%eax
  400ec0:	e8 3b fd ff ff       	callq  400c00 <printf@plt>
  400ec5:	bf e8 2b 40 00       	mov    $0x402be8,%edi
  400eca:	e8 01 fd ff ff       	callq  400bd0 <puts@plt>
  400ecf:	bf 60 2d 40 00       	mov    $0x402d60,%edi
  400ed4:	e8 f7 fc ff ff       	callq  400bd0 <puts@plt>
  400ed9:	bf 10 2c 40 00       	mov    $0x402c10,%edi
  400ede:	e8 ed fc ff ff       	callq  400bd0 <puts@plt>
  400ee3:	bf 7a 2d 40 00       	mov    $0x402d7a,%edi
  400ee8:	e8 e3 fc ff ff       	callq  400bd0 <puts@plt>
  400eed:	eb 2d                	jmp    400f1c <usage+0x76>
  400eef:	bf 96 2d 40 00       	mov    $0x402d96,%edi
  400ef4:	b8 00 00 00 00       	mov    $0x0,%eax
  400ef9:	e8 02 fd ff ff       	callq  400c00 <printf@plt>
  400efe:	bf 38 2c 40 00       	mov    $0x402c38,%edi
  400f03:	e8 c8 fc ff ff       	callq  400bd0 <puts@plt>
  400f08:	bf 60 2c 40 00       	mov    $0x402c60,%edi
  400f0d:	e8 be fc ff ff       	callq  400bd0 <puts@plt>
  400f12:	bf b4 2d 40 00       	mov    $0x402db4,%edi
  400f17:	e8 b4 fc ff ff       	callq  400bd0 <puts@plt>
  400f1c:	bf 00 00 00 00       	mov    $0x0,%edi
  400f21:	e8 3a fe ff ff       	callq  400d60 <exit@plt>

0000000000400f26 <initialize_target>:
  400f26:	55                   	push   %rbp
  400f27:	53                   	push   %rbx
  400f28:	48 81 ec 08 21 00 00 	sub    $0x2108,%rsp
  400f2f:	89 f5                	mov    %esi,%ebp
  400f31:	89 3d e1 3b 20 00    	mov    %edi,0x203be1(%rip)        # 604b18 <check_level>
  400f37:	8b 3d 0b 38 20 00    	mov    0x20380b(%rip),%edi        # 604748 <target_id>
  400f3d:	e8 84 1b 00 00       	callq  402ac6 <gencookie>
  400f42:	89 05 dc 3b 20 00    	mov    %eax,0x203bdc(%rip)        # 604b24 <cookie>
  400f48:	89 c7                	mov    %eax,%edi
  400f4a:	e8 77 1b 00 00       	callq  402ac6 <gencookie>
  400f4f:	89 05 cb 3b 20 00    	mov    %eax,0x203bcb(%rip)        # 604b20 <authkey>
  400f55:	8b 05 ed 37 20 00    	mov    0x2037ed(%rip),%eax        # 604748 <target_id>
  400f5b:	8d 78 01             	lea    0x1(%rax),%edi
  400f5e:	e8 3d fc ff ff       	callq  400ba0 <srandom@plt>
  400f63:	e8 58 fd ff ff       	callq  400cc0 <random@plt>
  400f68:	89 c7                	mov    %eax,%edi
  400f6a:	e8 cd 02 00 00       	callq  40123c <scramble>
  400f6f:	89 c3                	mov    %eax,%ebx
  400f71:	85 ed                	test   %ebp,%ebp
  400f73:	74 1a                	je     400f8f <initialize_target+0x69>
  400f75:	bf 00 00 00 00       	mov    $0x0,%edi
  400f7a:	e8 31 fd ff ff       	callq  400cb0 <time@plt>
  400f7f:	89 c7                	mov    %eax,%edi
  400f81:	e8 1a fc ff ff       	callq  400ba0 <srandom@plt>
  400f86:	e8 35 fd ff ff       	callq  400cc0 <random@plt>
  400f8b:	89 c2                	mov    %eax,%edx
  400f8d:	eb 05                	jmp    400f94 <initialize_target+0x6e>
  400f8f:	ba 00 00 00 00       	mov    $0x0,%edx
  400f94:	8d 04 13             	lea    (%rbx,%rdx,1),%eax
  400f97:	0f b7 c0             	movzwl %ax,%eax
  400f9a:	8d 04 c5 00 01 00 00 	lea    0x100(,%rax,8),%eax
  400fa1:	89 c0                	mov    %eax,%eax
  400fa3:	48 89 05 f6 3a 20 00 	mov    %rax,0x203af6(%rip)        # 604aa0 <buf_offset>
  400faa:	c6 05 97 47 20 00 63 	movb   $0x63,0x204797(%rip)        # 605748 <target_prefix>
  400fb1:	83 3d f0 3a 20 00 00 	cmpl   $0x0,0x203af0(%rip)        # 604aa8 <notify>
  400fb8:	0f 84 b1 00 00 00    	je     40106f <initialize_target+0x149>
  400fbe:	83 3d 63 3b 20 00 00 	cmpl   $0x0,0x203b63(%rip)        # 604b28 <is_checker>
  400fc5:	0f 85 a4 00 00 00    	jne    40106f <initialize_target+0x149>
  400fcb:	be 00 01 00 00       	mov    $0x100,%esi
  400fd0:	48 89 e7             	mov    %rsp,%rdi
  400fd3:	e8 68 fd ff ff       	callq  400d40 <gethostname@plt>
  400fd8:	85 c0                	test   %eax,%eax
  400fda:	74 25                	je     401001 <initialize_target+0xdb>
  400fdc:	bf 90 2c 40 00       	mov    $0x402c90,%edi
  400fe1:	e8 ea fb ff ff       	callq  400bd0 <puts@plt>
  400fe6:	bf 08 00 00 00       	mov    $0x8,%edi
  400feb:	e8 70 fd ff ff       	callq  400d60 <exit@plt>
  400ff0:	48 89 e6             	mov    %rsp,%rsi
  400ff3:	e8 88 fb ff ff       	callq  400b80 <strcasecmp@plt>
  400ff8:	85 c0                	test   %eax,%eax
  400ffa:	74 21                	je     40101d <initialize_target+0xf7>
  400ffc:	83 c3 01             	add    $0x1,%ebx
  400fff:	eb 05                	jmp    401006 <initialize_target+0xe0>
  401001:	bb 00 00 00 00       	mov    $0x0,%ebx
  401006:	48 63 c3             	movslq %ebx,%rax
  401009:	48 8b 3c c5 80 47 60 	mov    0x604780(,%rax,8),%rdi
  401010:	00 
  401011:	48 85 ff             	test   %rdi,%rdi
  401014:	75 da                	jne    400ff0 <initialize_target+0xca>
  401016:	b8 00 00 00 00       	mov    $0x0,%eax
  40101b:	eb 05                	jmp    401022 <initialize_target+0xfc>
  40101d:	b8 01 00 00 00       	mov    $0x1,%eax
  401022:	85 c0                	test   %eax,%eax
  401024:	75 17                	jne    40103d <initialize_target+0x117>
  401026:	48 89 e6             	mov    %rsp,%rsi
  401029:	bf c8 2c 40 00       	mov    $0x402cc8,%edi
  40102e:	e8 cd fb ff ff       	callq  400c00 <printf@plt>
  401033:	bf 08 00 00 00       	mov    $0x8,%edi
  401038:	e8 23 fd ff ff       	callq  400d60 <exit@plt>
  40103d:	48 8d bc 24 00 01 00 	lea    0x100(%rsp),%rdi
  401044:	00 
  401045:	e8 15 18 00 00       	callq  40285f <init_driver>
  40104a:	85 c0                	test   %eax,%eax
  40104c:	79 21                	jns    40106f <initialize_target+0x149>
  40104e:	48 8d b4 24 00 01 00 	lea    0x100(%rsp),%rsi
  401055:	00 
  401056:	bf 08 2d 40 00       	mov    $0x402d08,%edi
  40105b:	b8 00 00 00 00       	mov    $0x0,%eax
  401060:	e8 9b fb ff ff       	callq  400c00 <printf@plt>
  401065:	bf 08 00 00 00       	mov    $0x8,%edi
  40106a:	e8 f1 fc ff ff       	callq  400d60 <exit@plt>
  40106f:	48 81 c4 08 21 00 00 	add    $0x2108,%rsp
  401076:	5b                   	pop    %rbx
  401077:	5d                   	pop    %rbp
  401078:	c3                   	retq   

0000000000401079 <main>:
  401079:	41 56                	push   %r14
  40107b:	41 55                	push   %r13
  40107d:	41 54                	push   %r12
  40107f:	55                   	push   %rbp
  401080:	53                   	push   %rbx
  401081:	41 89 fc             	mov    %edi,%r12d
  401084:	48 89 f3             	mov    %rsi,%rbx
  401087:	be 7f 1c 40 00       	mov    $0x401c7f,%esi
  40108c:	bf 0b 00 00 00       	mov    $0xb,%edi
  401091:	e8 da fb ff ff       	callq  400c70 <signal@plt>
  401096:	be 31 1c 40 00       	mov    $0x401c31,%esi
  40109b:	bf 07 00 00 00       	mov    $0x7,%edi
  4010a0:	e8 cb fb ff ff       	callq  400c70 <signal@plt>
  4010a5:	be cd 1c 40 00       	mov    $0x401ccd,%esi
  4010aa:	bf 04 00 00 00       	mov    $0x4,%edi
  4010af:	e8 bc fb ff ff       	callq  400c70 <signal@plt>
  4010b4:	83 3d 6d 3a 20 00 00 	cmpl   $0x0,0x203a6d(%rip)        # 604b28 <is_checker>
  4010bb:	74 20                	je     4010dd <main+0x64>
  4010bd:	be 1b 1d 40 00       	mov    $0x401d1b,%esi
  4010c2:	bf 0e 00 00 00       	mov    $0xe,%edi
  4010c7:	e8 a4 fb ff ff       	callq  400c70 <signal@plt>
  4010cc:	bf 05 00 00 00       	mov    $0x5,%edi
  4010d1:	e8 4a fb ff ff       	callq  400c20 <alarm@plt>
  4010d6:	bd d2 2d 40 00       	mov    $0x402dd2,%ebp
  4010db:	eb 05                	jmp    4010e2 <main+0x69>
  4010dd:	bd cd 2d 40 00       	mov    $0x402dcd,%ebp
  4010e2:	48 8b 05 d7 39 20 00 	mov    0x2039d7(%rip),%rax        # 604ac0 <stdin@@GLIBC_2.2.5>
  4010e9:	48 89 05 20 3a 20 00 	mov    %rax,0x203a20(%rip)        # 604b10 <infile>
  4010f0:	41 bd 00 00 00 00    	mov    $0x0,%r13d
  4010f6:	41 be 00 00 00 00    	mov    $0x0,%r14d
  4010fc:	e9 b9 00 00 00       	jmpq   4011ba <main+0x141>
  401101:	83 e8 61             	sub    $0x61,%eax
  401104:	3c 10                	cmp    $0x10,%al
  401106:	0f 87 93 00 00 00    	ja     40119f <main+0x126>
  40110c:	0f b6 c0             	movzbl %al,%eax
  40110f:	ff 24 c5 18 2e 40 00 	jmpq   *0x402e18(,%rax,8)
  401116:	48 8b 3b             	mov    (%rbx),%rdi
  401119:	e8 88 fd ff ff       	callq  400ea6 <usage>
  40111e:	be 0d 3a 40 00       	mov    $0x403a0d,%esi
  401123:	48 8b 3d b6 39 20 00 	mov    0x2039b6(%rip),%rdi        # 604ae0 <optarg@@GLIBC_2.2.5>
  40112a:	e8 e1 fb ff ff       	callq  400d10 <fopen@plt>
  40112f:	48 89 05 da 39 20 00 	mov    %rax,0x2039da(%rip)        # 604b10 <infile>
  401136:	48 85 c0             	test   %rax,%rax
  401139:	75 7f                	jne    4011ba <main+0x141>
  40113b:	48 8b 15 9e 39 20 00 	mov    0x20399e(%rip),%rdx        # 604ae0 <optarg@@GLIBC_2.2.5>
  401142:	be da 2d 40 00       	mov    $0x402dda,%esi
  401147:	48 8b 3d 9a 39 20 00 	mov    0x20399a(%rip),%rdi        # 604ae8 <stderr@@GLIBC_2.2.5>
  40114e:	e8 3d fb ff ff       	callq  400c90 <fprintf@plt>
  401153:	b8 01 00 00 00       	mov    $0x1,%eax
  401158:	e9 d6 00 00 00       	jmpq   401233 <main+0x1ba>
  40115d:	ba 10 00 00 00       	mov    $0x10,%edx
  401162:	be 00 00 00 00       	mov    $0x0,%esi
  401167:	48 8b 3d 72 39 20 00 	mov    0x203972(%rip),%rdi        # 604ae0 <optarg@@GLIBC_2.2.5>
  40116e:	e8 bd fb ff ff       	callq  400d30 <strtoul@plt>
  401173:	41 89 c6             	mov    %eax,%r14d
  401176:	eb 42                	jmp    4011ba <main+0x141>
  401178:	ba 0a 00 00 00       	mov    $0xa,%edx
  40117d:	be 00 00 00 00       	mov    $0x0,%esi
  401182:	48 8b 3d 57 39 20 00 	mov    0x203957(%rip),%rdi        # 604ae0 <optarg@@GLIBC_2.2.5>
  401189:	e8 12 fb ff ff       	callq  400ca0 <strtol@plt>
  40118e:	41 89 c5             	mov    %eax,%r13d
  401191:	eb 27                	jmp    4011ba <main+0x141>
  401193:	c7 05 0b 39 20 00 00 	movl   $0x0,0x20390b(%rip)        # 604aa8 <notify>
  40119a:	00 00 00 
  40119d:	eb 1b                	jmp    4011ba <main+0x141>
  40119f:	40 0f be f6          	movsbl %sil,%esi
  4011a3:	bf f7 2d 40 00       	mov    $0x402df7,%edi
  4011a8:	b8 00 00 00 00       	mov    $0x0,%eax
  4011ad:	e8 4e fa ff ff       	callq  400c00 <printf@plt>
  4011b2:	48 8b 3b             	mov    (%rbx),%rdi
  4011b5:	e8 ec fc ff ff       	callq  400ea6 <usage>
  4011ba:	48 89 ea             	mov    %rbp,%rdx
  4011bd:	48 89 de             	mov    %rbx,%rsi
  4011c0:	44 89 e7             	mov    %r12d,%edi
  4011c3:	e8 58 fb ff ff       	callq  400d20 <getopt@plt>
  4011c8:	89 c6                	mov    %eax,%esi
  4011ca:	3c ff                	cmp    $0xff,%al
  4011cc:	0f 85 2f ff ff ff    	jne    401101 <main+0x88>
  4011d2:	be 00 00 00 00       	mov    $0x0,%esi
  4011d7:	44 89 ef             	mov    %r13d,%edi
  4011da:	e8 47 fd ff ff       	callq  400f26 <initialize_target>
  4011df:	83 3d 42 39 20 00 00 	cmpl   $0x0,0x203942(%rip)        # 604b28 <is_checker>
  4011e6:	74 25                	je     40120d <main+0x194>
  4011e8:	44 3b 35 31 39 20 00 	cmp    0x203931(%rip),%r14d        # 604b20 <authkey>
  4011ef:	74 1c                	je     40120d <main+0x194>
  4011f1:	44 89 f6             	mov    %r14d,%esi
  4011f4:	bf 30 2d 40 00       	mov    $0x402d30,%edi
  4011f9:	b8 00 00 00 00       	mov    $0x0,%eax
  4011fe:	e8 fd f9 ff ff       	callq  400c00 <printf@plt>
  401203:	b8 00 00 00 00       	mov    $0x0,%eax
  401208:	e8 33 07 00 00       	callq  401940 <check_fail>
  40120d:	8b 35 11 39 20 00    	mov    0x203911(%rip),%esi        # 604b24 <cookie>
  401213:	bf 0a 2e 40 00       	mov    $0x402e0a,%edi
  401218:	b8 00 00 00 00       	mov    $0x0,%eax
  40121d:	e8 de f9 ff ff       	callq  400c00 <printf@plt>
  401222:	48 8b 3d 77 38 20 00 	mov    0x203877(%rip),%rdi        # 604aa0 <buf_offset>
  401229:	e8 bf 0b 00 00       	callq  401ded <stable_launch>
  40122e:	b8 00 00 00 00       	mov    $0x0,%eax
  401233:	5b                   	pop    %rbx
  401234:	5d                   	pop    %rbp
  401235:	41 5c                	pop    %r12
  401237:	41 5d                	pop    %r13
  401239:	41 5e                	pop    %r14
  40123b:	c3                   	retq   

000000000040123c <scramble>:
  40123c:	b8 00 00 00 00       	mov    $0x0,%eax
  401241:	eb 11                	jmp    401254 <scramble+0x18>
  401243:	69 d0 98 45 00 00    	imul   $0x4598,%eax,%edx
  401249:	01 fa                	add    %edi,%edx
  40124b:	89 c1                	mov    %eax,%ecx
  40124d:	89 54 8c d0          	mov    %edx,-0x30(%rsp,%rcx,4)
  401251:	83 c0 01             	add    $0x1,%eax
  401254:	83 f8 09             	cmp    $0x9,%eax
  401257:	76 ea                	jbe    401243 <scramble+0x7>
  401259:	8b 44 24 f4          	mov    -0xc(%rsp),%eax
  40125d:	69 c0 22 1a 00 00    	imul   $0x1a22,%eax,%eax
  401263:	89 44 24 f4          	mov    %eax,-0xc(%rsp)
  401267:	8b 44 24 dc          	mov    -0x24(%rsp),%eax
  40126b:	69 c0 57 5a 00 00    	imul   $0x5a57,%eax,%eax
  401271:	89 44 24 dc          	mov    %eax,-0x24(%rsp)
  401275:	8b 44 24 d4          	mov    -0x2c(%rsp),%eax
  401279:	69 c0 de 08 00 00    	imul   $0x8de,%eax,%eax
  40127f:	89 44 24 d4          	mov    %eax,-0x2c(%rsp)
  401283:	8b 44 24 dc          	mov    -0x24(%rsp),%eax
  401287:	69 c0 b9 11 00 00    	imul   $0x11b9,%eax,%eax
  40128d:	89 44 24 dc          	mov    %eax,-0x24(%rsp)
  401291:	8b 44 24 d4          	mov    -0x2c(%rsp),%eax
  401295:	69 c0 f7 9c 00 00    	imul   $0x9cf7,%eax,%eax
  40129b:	89 44 24 d4          	mov    %eax,-0x2c(%rsp)
  40129f:	8b 44 24 ec          	mov    -0x14(%rsp),%eax
  4012a3:	69 c0 64 35 00 00    	imul   $0x3564,%eax,%eax
  4012a9:	89 44 24 ec          	mov    %eax,-0x14(%rsp)
  4012ad:	8b 44 24 e0          	mov    -0x20(%rsp),%eax
  4012b1:	69 c0 7f af 00 00    	imul   $0xaf7f,%eax,%eax
  4012b7:	89 44 24 e0          	mov    %eax,-0x20(%rsp)
  4012bb:	8b 44 24 f0          	mov    -0x10(%rsp),%eax
  4012bf:	69 c0 d4 f2 00 00    	imul   $0xf2d4,%eax,%eax
  4012c5:	89 44 24 f0          	mov    %eax,-0x10(%rsp)
  4012c9:	8b 44 24 ec          	mov    -0x14(%rsp),%eax
  4012cd:	69 c0 c1 5c 00 00    	imul   $0x5cc1,%eax,%eax
  4012d3:	89 44 24 ec          	mov    %eax,-0x14(%rsp)
  4012d7:	8b 44 24 f0          	mov    -0x10(%rsp),%eax
  4012db:	69 c0 51 0e 00 00    	imul   $0xe51,%eax,%eax
  4012e1:	89 44 24 f0          	mov    %eax,-0x10(%rsp)
  4012e5:	8b 44 24 d8          	mov    -0x28(%rsp),%eax
  4012e9:	69 c0 69 a4 00 00    	imul   $0xa469,%eax,%eax
  4012ef:	89 44 24 d8          	mov    %eax,-0x28(%rsp)
  4012f3:	8b 44 24 ec          	mov    -0x14(%rsp),%eax
  4012f7:	69 c0 d4 28 00 00    	imul   $0x28d4,%eax,%eax
  4012fd:	89 44 24 ec          	mov    %eax,-0x14(%rsp)
  401301:	8b 44 24 ec          	mov    -0x14(%rsp),%eax
  401305:	69 c0 36 28 00 00    	imul   $0x2836,%eax,%eax
  40130b:	89 44 24 ec          	mov    %eax,-0x14(%rsp)
  40130f:	8b 44 24 dc          	mov    -0x24(%rsp),%eax
  401313:	69 c0 57 9d 00 00    	imul   $0x9d57,%eax,%eax
  401319:	89 44 24 dc          	mov    %eax,-0x24(%rsp)
  40131d:	8b 44 24 d8          	mov    -0x28(%rsp),%eax
  401321:	69 c0 91 13 00 00    	imul   $0x1391,%eax,%eax
  401327:	89 44 24 d8          	mov    %eax,-0x28(%rsp)
  40132b:	8b 44 24 ec          	mov    -0x14(%rsp),%eax
  40132f:	69 c0 6c a4 00 00    	imul   $0xa46c,%eax,%eax
  401335:	89 44 24 ec          	mov    %eax,-0x14(%rsp)
  401339:	8b 44 24 dc          	mov    -0x24(%rsp),%eax
  40133d:	69 c0 4d fb 00 00    	imul   $0xfb4d,%eax,%eax
  401343:	89 44 24 dc          	mov    %eax,-0x24(%rsp)
  401347:	8b 44 24 e4          	mov    -0x1c(%rsp),%eax
  40134b:	69 c0 81 86 00 00    	imul   $0x8681,%eax,%eax
  401351:	89 44 24 e4          	mov    %eax,-0x1c(%rsp)
  401355:	8b 44 24 d0          	mov    -0x30(%rsp),%eax
  401359:	69 c0 99 c8 00 00    	imul   $0xc899,%eax,%eax
  40135f:	89 44 24 d0          	mov    %eax,-0x30(%rsp)
  401363:	8b 44 24 e8          	mov    -0x18(%rsp),%eax
  401367:	69 c0 ac 9e 00 00    	imul   $0x9eac,%eax,%eax
  40136d:	89 44 24 e8          	mov    %eax,-0x18(%rsp)
  401371:	8b 44 24 ec          	mov    -0x14(%rsp),%eax
  401375:	69 c0 af 84 00 00    	imul   $0x84af,%eax,%eax
  40137b:	89 44 24 ec          	mov    %eax,-0x14(%rsp)
  40137f:	8b 44 24 d0          	mov    -0x30(%rsp),%eax
  401383:	69 c0 97 9e 00 00    	imul   $0x9e97,%eax,%eax
  401389:	89 44 24 d0          	mov    %eax,-0x30(%rsp)
  40138d:	8b 44 24 e8          	mov    -0x18(%rsp),%eax
  401391:	69 c0 07 8d 00 00    	imul   $0x8d07,%eax,%eax
  401397:	89 44 24 e8          	mov    %eax,-0x18(%rsp)
  40139b:	8b 44 24 f0          	mov    -0x10(%rsp),%eax
  40139f:	69 c0 c5 c1 00 00    	imul   $0xc1c5,%eax,%eax
  4013a5:	89 44 24 f0          	mov    %eax,-0x10(%rsp)
  4013a9:	8b 44 24 e8          	mov    -0x18(%rsp),%eax
  4013ad:	69 c0 81 21 00 00    	imul   $0x2181,%eax,%eax
  4013b3:	89 44 24 e8          	mov    %eax,-0x18(%rsp)
  4013b7:	8b 44 24 d8          	mov    -0x28(%rsp),%eax
  4013bb:	69 c0 f7 d3 00 00    	imul   $0xd3f7,%eax,%eax
  4013c1:	89 44 24 d8          	mov    %eax,-0x28(%rsp)
  4013c5:	8b 44 24 f4          	mov    -0xc(%rsp),%eax
  4013c9:	69 c0 d4 df 00 00    	imul   $0xdfd4,%eax,%eax
  4013cf:	89 44 24 f4          	mov    %eax,-0xc(%rsp)
  4013d3:	8b 44 24 e0          	mov    -0x20(%rsp),%eax
  4013d7:	69 c0 12 aa 00 00    	imul   $0xaa12,%eax,%eax
  4013dd:	89 44 24 e0          	mov    %eax,-0x20(%rsp)
  4013e1:	8b 44 24 ec          	mov    -0x14(%rsp),%eax
  4013e5:	69 c0 15 e9 00 00    	imul   $0xe915,%eax,%eax
  4013eb:	89 44 24 ec          	mov    %eax,-0x14(%rsp)
  4013ef:	8b 44 24 e0          	mov    -0x20(%rsp),%eax
  4013f3:	69 c0 dd 66 00 00    	imul   $0x66dd,%eax,%eax
  4013f9:	89 44 24 e0          	mov    %eax,-0x20(%rsp)
  4013fd:	8b 44 24 d4          	mov    -0x2c(%rsp),%eax
  401401:	69 c0 39 28 00 00    	imul   $0x2839,%eax,%eax
  401407:	89 44 24 d4          	mov    %eax,-0x2c(%rsp)
  40140b:	8b 44 24 dc          	mov    -0x24(%rsp),%eax
  40140f:	69 c0 59 2a 00 00    	imul   $0x2a59,%eax,%eax
  401415:	89 44 24 dc          	mov    %eax,-0x24(%rsp)
  401419:	8b 44 24 e8          	mov    -0x18(%rsp),%eax
  40141d:	69 c0 0d 0a 00 00    	imul   $0xa0d,%eax,%eax
  401423:	89 44 24 e8          	mov    %eax,-0x18(%rsp)
  401427:	8b 44 24 e0          	mov    -0x20(%rsp),%eax
  40142b:	69 c0 b2 27 00 00    	imul   $0x27b2,%eax,%eax
  401431:	89 44 24 e0          	mov    %eax,-0x20(%rsp)
  401435:	8b 44 24 f4          	mov    -0xc(%rsp),%eax
  401439:	69 c0 15 49 00 00    	imul   $0x4915,%eax,%eax
  40143f:	89 44 24 f4          	mov    %eax,-0xc(%rsp)
  401443:	8b 44 24 d8          	mov    -0x28(%rsp),%eax
  401447:	69 c0 36 38 00 00    	imul   $0x3836,%eax,%eax
  40144d:	89 44 24 d8          	mov    %eax,-0x28(%rsp)
  401451:	8b 44 24 e8          	mov    -0x18(%rsp),%eax
  401455:	69 c0 70 9a 00 00    	imul   $0x9a70,%eax,%eax
  40145b:	89 44 24 e8          	mov    %eax,-0x18(%rsp)
  40145f:	8b 44 24 d4          	mov    -0x2c(%rsp),%eax
  401463:	69 c0 f3 01 00 00    	imul   $0x1f3,%eax,%eax
  401469:	89 44 24 d4          	mov    %eax,-0x2c(%rsp)
  40146d:	8b 44 24 e0          	mov    -0x20(%rsp),%eax
  401471:	69 c0 3a 68 00 00    	imul   $0x683a,%eax,%eax
  401477:	89 44 24 e0          	mov    %eax,-0x20(%rsp)
  40147b:	8b 44 24 ec          	mov    -0x14(%rsp),%eax
  40147f:	69 c0 3f 11 00 00    	imul   $0x113f,%eax,%eax
  401485:	89 44 24 ec          	mov    %eax,-0x14(%rsp)
  401489:	8b 44 24 d0          	mov    -0x30(%rsp),%eax
  40148d:	69 c0 ce 93 00 00    	imul   $0x93ce,%eax,%eax
  401493:	89 44 24 d0          	mov    %eax,-0x30(%rsp)
  401497:	8b 44 24 d0          	mov    -0x30(%rsp),%eax
  40149b:	69 c0 a6 4f 00 00    	imul   $0x4fa6,%eax,%eax
  4014a1:	89 44 24 d0          	mov    %eax,-0x30(%rsp)
  4014a5:	8b 44 24 e0          	mov    -0x20(%rsp),%eax
  4014a9:	69 c0 02 e2 00 00    	imul   $0xe202,%eax,%eax
  4014af:	89 44 24 e0          	mov    %eax,-0x20(%rsp)
  4014b3:	8b 44 24 d4          	mov    -0x2c(%rsp),%eax
  4014b7:	69 c0 ac 7b 00 00    	imul   $0x7bac,%eax,%eax
  4014bd:	89 44 24 d4          	mov    %eax,-0x2c(%rsp)
  4014c1:	8b 44 24 e4          	mov    -0x1c(%rsp),%eax
  4014c5:	69 c0 21 41 00 00    	imul   $0x4121,%eax,%eax
  4014cb:	89 44 24 e4          	mov    %eax,-0x1c(%rsp)
  4014cf:	8b 44 24 dc          	mov    -0x24(%rsp),%eax
  4014d3:	69 c0 bd c7 00 00    	imul   $0xc7bd,%eax,%eax
  4014d9:	89 44 24 dc          	mov    %eax,-0x24(%rsp)
  4014dd:	8b 44 24 d0          	mov    -0x30(%rsp),%eax
  4014e1:	69 c0 d3 ed 00 00    	imul   $0xedd3,%eax,%eax
  4014e7:	89 44 24 d0          	mov    %eax,-0x30(%rsp)
  4014eb:	8b 44 24 e8          	mov    -0x18(%rsp),%eax
  4014ef:	69 c0 e2 8c 00 00    	imul   $0x8ce2,%eax,%eax
  4014f5:	89 44 24 e8          	mov    %eax,-0x18(%rsp)
  4014f9:	8b 44 24 e0          	mov    -0x20(%rsp),%eax
  4014fd:	69 c0 f1 a2 00 00    	imul   $0xa2f1,%eax,%eax
  401503:	89 44 24 e0          	mov    %eax,-0x20(%rsp)
  401507:	8b 44 24 e8          	mov    -0x18(%rsp),%eax
  40150b:	69 c0 86 ca 00 00    	imul   $0xca86,%eax,%eax
  401511:	89 44 24 e8          	mov    %eax,-0x18(%rsp)
  401515:	8b 44 24 d8          	mov    -0x28(%rsp),%eax
  401519:	69 c0 f3 7a 00 00    	imul   $0x7af3,%eax,%eax
  40151f:	89 44 24 d8          	mov    %eax,-0x28(%rsp)
  401523:	8b 44 24 e4          	mov    -0x1c(%rsp),%eax
  401527:	69 c0 ca b9 00 00    	imul   $0xb9ca,%eax,%eax
  40152d:	89 44 24 e4          	mov    %eax,-0x1c(%rsp)
  401531:	8b 44 24 dc          	mov    -0x24(%rsp),%eax
  401535:	69 c0 8a d9 00 00    	imul   $0xd98a,%eax,%eax
  40153b:	89 44 24 dc          	mov    %eax,-0x24(%rsp)
  40153f:	8b 44 24 d8          	mov    -0x28(%rsp),%eax
  401543:	69 c0 da 3c 00 00    	imul   $0x3cda,%eax,%eax
  401549:	89 44 24 d8          	mov    %eax,-0x28(%rsp)
  40154d:	8b 44 24 d0          	mov    -0x30(%rsp),%eax
  401551:	69 c0 75 7f 00 00    	imul   $0x7f75,%eax,%eax
  401557:	89 44 24 d0          	mov    %eax,-0x30(%rsp)
  40155b:	8b 44 24 ec          	mov    -0x14(%rsp),%eax
  40155f:	69 c0 80 cb 00 00    	imul   $0xcb80,%eax,%eax
  401565:	89 44 24 ec          	mov    %eax,-0x14(%rsp)
  401569:	8b 44 24 e0          	mov    -0x20(%rsp),%eax
  40156d:	69 c0 50 33 00 00    	imul   $0x3350,%eax,%eax
  401573:	89 44 24 e0          	mov    %eax,-0x20(%rsp)
  401577:	8b 44 24 e0          	mov    -0x20(%rsp),%eax
  40157b:	69 c0 e5 86 00 00    	imul   $0x86e5,%eax,%eax
  401581:	89 44 24 e0          	mov    %eax,-0x20(%rsp)
  401585:	8b 44 24 e4          	mov    -0x1c(%rsp),%eax
  401589:	69 c0 de 14 00 00    	imul   $0x14de,%eax,%eax
  40158f:	89 44 24 e4          	mov    %eax,-0x1c(%rsp)
  401593:	8b 44 24 f4          	mov    -0xc(%rsp),%eax
  401597:	69 c0 69 e0 00 00    	imul   $0xe069,%eax,%eax
  40159d:	89 44 24 f4          	mov    %eax,-0xc(%rsp)
  4015a1:	8b 44 24 e0          	mov    -0x20(%rsp),%eax
  4015a5:	69 c0 1b e5 00 00    	imul   $0xe51b,%eax,%eax
  4015ab:	89 44 24 e0          	mov    %eax,-0x20(%rsp)
  4015af:	8b 44 24 d8          	mov    -0x28(%rsp),%eax
  4015b3:	69 c0 5a bf 00 00    	imul   $0xbf5a,%eax,%eax
  4015b9:	89 44 24 d8          	mov    %eax,-0x28(%rsp)
  4015bd:	8b 44 24 f0          	mov    -0x10(%rsp),%eax
  4015c1:	69 c0 3d 9a 00 00    	imul   $0x9a3d,%eax,%eax
  4015c7:	89 44 24 f0          	mov    %eax,-0x10(%rsp)
  4015cb:	8b 44 24 e0          	mov    -0x20(%rsp),%eax
  4015cf:	69 c0 ce ca 00 00    	imul   $0xcace,%eax,%eax
  4015d5:	89 44 24 e0          	mov    %eax,-0x20(%rsp)
  4015d9:	8b 44 24 d0          	mov    -0x30(%rsp),%eax
  4015dd:	69 c0 d1 00 00 00    	imul   $0xd1,%eax,%eax
  4015e3:	89 44 24 d0          	mov    %eax,-0x30(%rsp)
  4015e7:	8b 44 24 d8          	mov    -0x28(%rsp),%eax
  4015eb:	69 c0 34 29 00 00    	imul   $0x2934,%eax,%eax
  4015f1:	89 44 24 d8          	mov    %eax,-0x28(%rsp)
  4015f5:	8b 44 24 d0          	mov    -0x30(%rsp),%eax
  4015f9:	69 c0 10 98 00 00    	imul   $0x9810,%eax,%eax
  4015ff:	89 44 24 d0          	mov    %eax,-0x30(%rsp)
  401603:	8b 44 24 dc          	mov    -0x24(%rsp),%eax
  401607:	69 c0 28 91 00 00    	imul   $0x9128,%eax,%eax
  40160d:	89 44 24 dc          	mov    %eax,-0x24(%rsp)
  401611:	8b 44 24 e8          	mov    -0x18(%rsp),%eax
  401615:	69 c0 bc 9e 00 00    	imul   $0x9ebc,%eax,%eax
  40161b:	89 44 24 e8          	mov    %eax,-0x18(%rsp)
  40161f:	8b 44 24 dc          	mov    -0x24(%rsp),%eax
  401623:	69 c0 5f b3 00 00    	imul   $0xb35f,%eax,%eax
  401629:	89 44 24 dc          	mov    %eax,-0x24(%rsp)
  40162d:	8b 44 24 ec          	mov    -0x14(%rsp),%eax
  401631:	69 c0 1c 1c 00 00    	imul   $0x1c1c,%eax,%eax
  401637:	89 44 24 ec          	mov    %eax,-0x14(%rsp)
  40163b:	8b 44 24 f4          	mov    -0xc(%rsp),%eax
  40163f:	69 c0 75 31 00 00    	imul   $0x3175,%eax,%eax
  401645:	89 44 24 f4          	mov    %eax,-0xc(%rsp)
  401649:	8b 44 24 d8          	mov    -0x28(%rsp),%eax
  40164d:	69 c0 05 9a 00 00    	imul   $0x9a05,%eax,%eax
  401653:	89 44 24 d8          	mov    %eax,-0x28(%rsp)
  401657:	8b 44 24 f4          	mov    -0xc(%rsp),%eax
  40165b:	69 c0 bf 64 00 00    	imul   $0x64bf,%eax,%eax
  401661:	89 44 24 f4          	mov    %eax,-0xc(%rsp)
  401665:	8b 44 24 d4          	mov    -0x2c(%rsp),%eax
  401669:	69 c0 ec ba 00 00    	imul   $0xbaec,%eax,%eax
  40166f:	89 44 24 d4          	mov    %eax,-0x2c(%rsp)
  401673:	8b 44 24 dc          	mov    -0x24(%rsp),%eax
  401677:	69 c0 e3 04 00 00    	imul   $0x4e3,%eax,%eax
  40167d:	89 44 24 dc          	mov    %eax,-0x24(%rsp)
  401681:	8b 44 24 e4          	mov    -0x1c(%rsp),%eax
  401685:	69 c0 4f ed 00 00    	imul   $0xed4f,%eax,%eax
  40168b:	89 44 24 e4          	mov    %eax,-0x1c(%rsp)
  40168f:	8b 44 24 d8          	mov    -0x28(%rsp),%eax
  401693:	69 c0 f5 72 00 00    	imul   $0x72f5,%eax,%eax
  401699:	89 44 24 d8          	mov    %eax,-0x28(%rsp)
  40169d:	8b 44 24 e4          	mov    -0x1c(%rsp),%eax
  4016a1:	69 c0 7a 10 00 00    	imul   $0x107a,%eax,%eax
  4016a7:	89 44 24 e4          	mov    %eax,-0x1c(%rsp)
  4016ab:	8b 44 24 d4          	mov    -0x2c(%rsp),%eax
  4016af:	69 c0 ba c4 00 00    	imul   $0xc4ba,%eax,%eax
  4016b5:	89 44 24 d4          	mov    %eax,-0x2c(%rsp)
  4016b9:	8b 44 24 f0          	mov    -0x10(%rsp),%eax
  4016bd:	69 c0 17 d3 00 00    	imul   $0xd317,%eax,%eax
  4016c3:	89 44 24 f0          	mov    %eax,-0x10(%rsp)
  4016c7:	8b 44 24 d4          	mov    -0x2c(%rsp),%eax
  4016cb:	69 c0 0f 8d 00 00    	imul   $0x8d0f,%eax,%eax
  4016d1:	89 44 24 d4          	mov    %eax,-0x2c(%rsp)
  4016d5:	8b 44 24 dc          	mov    -0x24(%rsp),%eax
  4016d9:	69 c0 ed d0 00 00    	imul   $0xd0ed,%eax,%eax
  4016df:	89 44 24 dc          	mov    %eax,-0x24(%rsp)
  4016e3:	8b 44 24 f4          	mov    -0xc(%rsp),%eax
  4016e7:	69 c0 c2 dc 00 00    	imul   $0xdcc2,%eax,%eax
  4016ed:	89 44 24 f4          	mov    %eax,-0xc(%rsp)
  4016f1:	8b 44 24 d8          	mov    -0x28(%rsp),%eax
  4016f5:	69 c0 3a ec 00 00    	imul   $0xec3a,%eax,%eax
  4016fb:	89 44 24 d8          	mov    %eax,-0x28(%rsp)
  4016ff:	8b 44 24 d0          	mov    -0x30(%rsp),%eax
  401703:	69 c0 da 8d 00 00    	imul   $0x8dda,%eax,%eax
  401709:	89 44 24 d0          	mov    %eax,-0x30(%rsp)
  40170d:	8b 44 24 ec          	mov    -0x14(%rsp),%eax
  401711:	69 c0 01 0f 00 00    	imul   $0xf01,%eax,%eax
  401717:	89 44 24 ec          	mov    %eax,-0x14(%rsp)
  40171b:	ba 00 00 00 00       	mov    $0x0,%edx
  401720:	b8 00 00 00 00       	mov    $0x0,%eax
  401725:	eb 0b                	jmp    401732 <scramble+0x4f6>
  401727:	89 d1                	mov    %edx,%ecx
  401729:	8b 4c 8c d0          	mov    -0x30(%rsp,%rcx,4),%ecx
  40172d:	01 c8                	add    %ecx,%eax
  40172f:	83 c2 01             	add    $0x1,%edx
  401732:	83 fa 09             	cmp    $0x9,%edx
  401735:	76 f0                	jbe    401727 <scramble+0x4eb>
  401737:	f3 c3                	repz retq 

0000000000401739 <getbuf>:
  401739:	48 83 ec 28          	sub    $0x28,%rsp
  40173d:	48 89 e7             	mov    %rsp,%rdi
  401740:	e8 2a 02 00 00       	callq  40196f <Gets>
  401745:	b8 01 00 00 00       	mov    $0x1,%eax
  40174a:	48 83 c4 28          	add    $0x28,%rsp
  40174e:	c3                   	retq   

000000000040174f <touch1>:
  40174f:	48 83 ec 08          	sub    $0x8,%rsp
  401753:	c7 05 bf 33 20 00 01 	movl   $0x1,0x2033bf(%rip)        # 604b1c <vlevel>
  40175a:	00 00 00 
  40175d:	bf 5f 38 40 00       	mov    $0x40385f,%edi
  401762:	e8 69 f4 ff ff       	callq  400bd0 <puts@plt>
  401767:	bf 01 00 00 00       	mov    $0x1,%edi
  40176c:	e8 e6 03 00 00       	callq  401b57 <validate>
  401771:	bf 00 00 00 00       	mov    $0x0,%edi
  401776:	e8 e5 f5 ff ff       	callq  400d60 <exit@plt>

000000000040177b <touch2>:
  40177b:	48 83 ec 08          	sub    $0x8,%rsp
  40177f:	89 fe                	mov    %edi,%esi
  401781:	c7 05 91 33 20 00 02 	movl   $0x2,0x203391(%rip)        # 604b1c <vlevel>
  401788:	00 00 00 
  40178b:	3b 3d 93 33 20 00    	cmp    0x203393(%rip),%edi        # 604b24 <cookie>
  401791:	75 1b                	jne    4017ae <touch2+0x33>
  401793:	bf 88 38 40 00       	mov    $0x403888,%edi
  401798:	b8 00 00 00 00       	mov    $0x0,%eax
  40179d:	e8 5e f4 ff ff       	callq  400c00 <printf@plt>
  4017a2:	bf 02 00 00 00       	mov    $0x2,%edi
  4017a7:	e8 ab 03 00 00       	callq  401b57 <validate>
  4017ac:	eb 19                	jmp    4017c7 <touch2+0x4c>
  4017ae:	bf b0 38 40 00       	mov    $0x4038b0,%edi
  4017b3:	b8 00 00 00 00       	mov    $0x0,%eax
  4017b8:	e8 43 f4 ff ff       	callq  400c00 <printf@plt>
  4017bd:	bf 02 00 00 00       	mov    $0x2,%edi
  4017c2:	e8 42 04 00 00       	callq  401c09 <fail>
  4017c7:	bf 00 00 00 00       	mov    $0x0,%edi
  4017cc:	e8 8f f5 ff ff       	callq  400d60 <exit@plt>

00000000004017d1 <hexmatch>:
  4017d1:	41 54                	push   %r12
  4017d3:	55                   	push   %rbp
  4017d4:	53                   	push   %rbx
  4017d5:	48 83 ec 70          	sub    $0x70,%rsp
  4017d9:	89 fd                	mov    %edi,%ebp
  4017db:	48 89 f3             	mov    %rsi,%rbx
  4017de:	e8 dd f4 ff ff       	callq  400cc0 <random@plt>
  4017e3:	48 89 c6             	mov    %rax,%rsi
  4017e6:	48 b9 0b d7 a3 70 3d 	movabs $0xa3d70a3d70a3d70b,%rcx
  4017ed:	0a d7 a3 
  4017f0:	48 f7 e9             	imul   %rcx
  4017f3:	48 8d 0c 32          	lea    (%rdx,%rsi,1),%rcx
  4017f7:	48 c1 f9 06          	sar    $0x6,%rcx
  4017fb:	48 89 f0             	mov    %rsi,%rax
  4017fe:	48 c1 f8 3f          	sar    $0x3f,%rax
  401802:	48 29 c1             	sub    %rax,%rcx
  401805:	48 8d 04 89          	lea    (%rcx,%rcx,4),%rax
  401809:	48 8d 04 80          	lea    (%rax,%rax,4),%rax
  40180d:	48 c1 e0 02          	shl    $0x2,%rax
  401811:	48 29 c6             	sub    %rax,%rsi
  401814:	4c 8d 24 34          	lea    (%rsp,%rsi,1),%r12
  401818:	89 ea                	mov    %ebp,%edx
  40181a:	be 7c 38 40 00       	mov    $0x40387c,%esi
  40181f:	4c 89 e7             	mov    %r12,%rdi
  401822:	b8 00 00 00 00       	mov    $0x0,%eax
  401827:	e8 24 f5 ff ff       	callq  400d50 <sprintf@plt>
  40182c:	ba 09 00 00 00       	mov    $0x9,%edx
  401831:	4c 89 e6             	mov    %r12,%rsi
  401834:	48 89 df             	mov    %rbx,%rdi
  401837:	e8 74 f3 ff ff       	callq  400bb0 <strncmp@plt>
  40183c:	85 c0                	test   %eax,%eax
  40183e:	0f 94 c0             	sete   %al
  401841:	0f b6 c0             	movzbl %al,%eax
  401844:	48 83 c4 70          	add    $0x70,%rsp
  401848:	5b                   	pop    %rbx
  401849:	5d                   	pop    %rbp
  40184a:	41 5c                	pop    %r12
  40184c:	c3                   	retq   

000000000040184d <touch3>:
  40184d:	53                   	push   %rbx
  40184e:	48 89 fb             	mov    %rdi,%rbx
  401851:	c7 05 c1 32 20 00 03 	movl   $0x3,0x2032c1(%rip)        # 604b1c <vlevel>
  401858:	00 00 00 
  40185b:	48 89 fe             	mov    %rdi,%rsi
  40185e:	8b 3d c0 32 20 00    	mov    0x2032c0(%rip),%edi        # 604b24 <cookie>
  401864:	e8 68 ff ff ff       	callq  4017d1 <hexmatch>
  401869:	85 c0                	test   %eax,%eax
  40186b:	74 1e                	je     40188b <touch3+0x3e>
  40186d:	48 89 de             	mov    %rbx,%rsi
  401870:	bf d8 38 40 00       	mov    $0x4038d8,%edi
  401875:	b8 00 00 00 00       	mov    $0x0,%eax
  40187a:	e8 81 f3 ff ff       	callq  400c00 <printf@plt>
  40187f:	bf 03 00 00 00       	mov    $0x3,%edi
  401884:	e8 ce 02 00 00       	callq  401b57 <validate>
  401889:	eb 1c                	jmp    4018a7 <touch3+0x5a>
  40188b:	48 89 de             	mov    %rbx,%rsi
  40188e:	bf 00 39 40 00       	mov    $0x403900,%edi
  401893:	b8 00 00 00 00       	mov    $0x0,%eax
  401898:	e8 63 f3 ff ff       	callq  400c00 <printf@plt>
  40189d:	bf 03 00 00 00       	mov    $0x3,%edi
  4018a2:	e8 62 03 00 00       	callq  401c09 <fail>
  4018a7:	bf 00 00 00 00       	mov    $0x0,%edi
  4018ac:	e8 af f4 ff ff       	callq  400d60 <exit@plt>

00000000004018b1 <test>:
  4018b1:	48 83 ec 08          	sub    $0x8,%rsp
  4018b5:	b8 00 00 00 00       	mov    $0x0,%eax
  4018ba:	e8 7a fe ff ff       	callq  401739 <getbuf>
  4018bf:	89 c6                	mov    %eax,%esi
  4018c1:	bf 28 39 40 00       	mov    $0x403928,%edi
  4018c6:	b8 00 00 00 00       	mov    $0x0,%eax
  4018cb:	e8 30 f3 ff ff       	callq  400c00 <printf@plt>
  4018d0:	48 83 c4 08          	add    $0x8,%rsp
  4018d4:	c3                   	retq   

00000000004018d5 <save_char>:
  4018d5:	8b 05 69 3e 20 00    	mov    0x203e69(%rip),%eax        # 605744 <gets_cnt>
  4018db:	3d ff 03 00 00       	cmp    $0x3ff,%eax
  4018e0:	7f 49                	jg     40192b <save_char+0x56>
  4018e2:	8d 14 40             	lea    (%rax,%rax,2),%edx
  4018e5:	89 f9                	mov    %edi,%ecx
  4018e7:	c0 e9 04             	shr    $0x4,%cl
  4018ea:	83 e1 0f             	and    $0xf,%ecx
  4018ed:	0f b6 b1 50 3c 40 00 	movzbl 0x403c50(%rcx),%esi
  4018f4:	48 63 ca             	movslq %edx,%rcx
  4018f7:	40 88 b1 40 4b 60 00 	mov    %sil,0x604b40(%rcx)
  4018fe:	8d 4a 01             	lea    0x1(%rdx),%ecx
  401901:	83 e7 0f             	and    $0xf,%edi
  401904:	0f b6 b7 50 3c 40 00 	movzbl 0x403c50(%rdi),%esi
  40190b:	48 63 c9             	movslq %ecx,%rcx
  40190e:	40 88 b1 40 4b 60 00 	mov    %sil,0x604b40(%rcx)
  401915:	83 c2 02             	add    $0x2,%edx
  401918:	48 63 d2             	movslq %edx,%rdx
  40191b:	c6 82 40 4b 60 00 20 	movb   $0x20,0x604b40(%rdx)
  401922:	83 c0 01             	add    $0x1,%eax
  401925:	89 05 19 3e 20 00    	mov    %eax,0x203e19(%rip)        # 605744 <gets_cnt>
  40192b:	f3 c3                	repz retq 

000000000040192d <save_term>:
  40192d:	8b 05 11 3e 20 00    	mov    0x203e11(%rip),%eax        # 605744 <gets_cnt>
  401933:	8d 04 40             	lea    (%rax,%rax,2),%eax
  401936:	48 98                	cltq   
  401938:	c6 80 40 4b 60 00 00 	movb   $0x0,0x604b40(%rax)
  40193f:	c3                   	retq   

0000000000401940 <check_fail>:
  401940:	48 83 ec 08          	sub    $0x8,%rsp
  401944:	0f be 35 fd 3d 20 00 	movsbl 0x203dfd(%rip),%esi        # 605748 <target_prefix>
  40194b:	b9 40 4b 60 00       	mov    $0x604b40,%ecx
  401950:	8b 15 c2 31 20 00    	mov    0x2031c2(%rip),%edx        # 604b18 <check_level>
  401956:	bf 4b 39 40 00       	mov    $0x40394b,%edi
  40195b:	b8 00 00 00 00       	mov    $0x0,%eax
  401960:	e8 9b f2 ff ff       	callq  400c00 <printf@plt>
  401965:	bf 01 00 00 00       	mov    $0x1,%edi
  40196a:	e8 f1 f3 ff ff       	callq  400d60 <exit@plt>

000000000040196f <Gets>:
  40196f:	41 54                	push   %r12
  401971:	55                   	push   %rbp
  401972:	53                   	push   %rbx
  401973:	49 89 fc             	mov    %rdi,%r12
  401976:	c7 05 c4 3d 20 00 00 	movl   $0x0,0x203dc4(%rip)        # 605744 <gets_cnt>
  40197d:	00 00 00 
  401980:	48 89 fb             	mov    %rdi,%rbx
  401983:	eb 11                	jmp    401996 <Gets+0x27>
  401985:	48 8d 6b 01          	lea    0x1(%rbx),%rbp
  401989:	88 03                	mov    %al,(%rbx)
  40198b:	0f b6 f8             	movzbl %al,%edi
  40198e:	e8 42 ff ff ff       	callq  4018d5 <save_char>
  401993:	48 89 eb             	mov    %rbp,%rbx
  401996:	48 8b 3d 73 31 20 00 	mov    0x203173(%rip),%rdi        # 604b10 <infile>
  40199d:	e8 2e f3 ff ff       	callq  400cd0 <_IO_getc@plt>
  4019a2:	83 f8 ff             	cmp    $0xffffffff,%eax
  4019a5:	74 05                	je     4019ac <Gets+0x3d>
  4019a7:	83 f8 0a             	cmp    $0xa,%eax
  4019aa:	75 d9                	jne    401985 <Gets+0x16>
  4019ac:	c6 03 00             	movb   $0x0,(%rbx)
  4019af:	b8 00 00 00 00       	mov    $0x0,%eax
  4019b4:	e8 74 ff ff ff       	callq  40192d <save_term>
  4019b9:	4c 89 e0             	mov    %r12,%rax
  4019bc:	5b                   	pop    %rbx
  4019bd:	5d                   	pop    %rbp
  4019be:	41 5c                	pop    %r12
  4019c0:	c3                   	retq   

00000000004019c1 <notify_server>:
  4019c1:	83 3d 60 31 20 00 00 	cmpl   $0x0,0x203160(%rip)        # 604b28 <is_checker>
  4019c8:	0f 85 87 01 00 00    	jne    401b55 <notify_server+0x194>
  4019ce:	53                   	push   %rbx
  4019cf:	48 81 ec 00 40 00 00 	sub    $0x4000,%rsp
  4019d6:	89 fb                	mov    %edi,%ebx
  4019d8:	8b 05 66 3d 20 00    	mov    0x203d66(%rip),%eax        # 605744 <gets_cnt>
  4019de:	83 c0 64             	add    $0x64,%eax
  4019e1:	3d 00 20 00 00       	cmp    $0x2000,%eax
  4019e6:	7e 19                	jle    401a01 <notify_server+0x40>
  4019e8:	bf 80 3a 40 00       	mov    $0x403a80,%edi
  4019ed:	b8 00 00 00 00       	mov    $0x0,%eax
  4019f2:	e8 09 f2 ff ff       	callq  400c00 <printf@plt>
  4019f7:	bf 01 00 00 00       	mov    $0x1,%edi
  4019fc:	e8 5f f3 ff ff       	callq  400d60 <exit@plt>
  401a01:	44 0f be 0d 3f 3d 20 	movsbl 0x203d3f(%rip),%r9d        # 605748 <target_prefix>
  401a08:	00 
  401a09:	83 3d 98 30 20 00 00 	cmpl   $0x0,0x203098(%rip)        # 604aa8 <notify>
  401a10:	74 09                	je     401a1b <notify_server+0x5a>
  401a12:	44 8b 05 07 31 20 00 	mov    0x203107(%rip),%r8d        # 604b20 <authkey>
  401a19:	eb 06                	jmp    401a21 <notify_server+0x60>
  401a1b:	41 b8 ff ff ff ff    	mov    $0xffffffff,%r8d
  401a21:	85 db                	test   %ebx,%ebx
  401a23:	74 07                	je     401a2c <notify_server+0x6b>
  401a25:	b9 61 39 40 00       	mov    $0x403961,%ecx
  401a2a:	eb 05                	jmp    401a31 <notify_server+0x70>
  401a2c:	b9 66 39 40 00       	mov    $0x403966,%ecx
  401a31:	68 40 4b 60 00       	pushq  $0x604b40
  401a36:	56                   	push   %rsi
  401a37:	8b 15 0b 2d 20 00    	mov    0x202d0b(%rip),%edx        # 604748 <target_id>
  401a3d:	be 6b 39 40 00       	mov    $0x40396b,%esi
  401a42:	48 8d bc 24 10 20 00 	lea    0x2010(%rsp),%rdi
  401a49:	00 
  401a4a:	b8 00 00 00 00       	mov    $0x0,%eax
  401a4f:	e8 fc f2 ff ff       	callq  400d50 <sprintf@plt>
  401a54:	48 83 c4 10          	add    $0x10,%rsp
  401a58:	83 3d 49 30 20 00 00 	cmpl   $0x0,0x203049(%rip)        # 604aa8 <notify>
  401a5f:	74 74                	je     401ad5 <notify_server+0x114>
  401a61:	85 db                	test   %ebx,%ebx
  401a63:	74 64                	je     401ac9 <notify_server+0x108>
  401a65:	49 89 e1             	mov    %rsp,%r9
  401a68:	41 b8 00 00 00 00    	mov    $0x0,%r8d
  401a6e:	48 8d 8c 24 00 20 00 	lea    0x2000(%rsp),%rcx
  401a75:	00 
  401a76:	48 8b 15 d3 2c 20 00 	mov    0x202cd3(%rip),%rdx        # 604750 <lab>
  401a7d:	48 8b 35 d4 2c 20 00 	mov    0x202cd4(%rip),%rsi        # 604758 <course>
  401a84:	48 8b 3d b5 2c 20 00 	mov    0x202cb5(%rip),%rdi        # 604740 <user_id>
  401a8b:	e8 98 0f 00 00       	callq  402a28 <driver_post>
  401a90:	85 c0                	test   %eax,%eax
  401a92:	79 1c                	jns    401ab0 <notify_server+0xef>
  401a94:	48 89 e6             	mov    %rsp,%rsi
  401a97:	bf 87 39 40 00       	mov    $0x403987,%edi
  401a9c:	b8 00 00 00 00       	mov    $0x0,%eax
  401aa1:	e8 5a f1 ff ff       	callq  400c00 <printf@plt>
  401aa6:	bf 01 00 00 00       	mov    $0x1,%edi
  401aab:	e8 b0 f2 ff ff       	callq  400d60 <exit@plt>
  401ab0:	bf b0 3a 40 00       	mov    $0x403ab0,%edi
  401ab5:	e8 16 f1 ff ff       	callq  400bd0 <puts@plt>
  401aba:	bf 93 39 40 00       	mov    $0x403993,%edi
  401abf:	e8 0c f1 ff ff       	callq  400bd0 <puts@plt>
  401ac4:	e9 84 00 00 00       	jmpq   401b4d <notify_server+0x18c>
  401ac9:	bf 9d 39 40 00       	mov    $0x40399d,%edi
  401ace:	e8 fd f0 ff ff       	callq  400bd0 <puts@plt>
  401ad3:	eb 78                	jmp    401b4d <notify_server+0x18c>
  401ad5:	85 db                	test   %ebx,%ebx
  401ad7:	74 07                	je     401ae0 <notify_server+0x11f>
  401ad9:	be 61 39 40 00       	mov    $0x403961,%esi
  401ade:	eb 05                	jmp    401ae5 <notify_server+0x124>
  401ae0:	be 66 39 40 00       	mov    $0x403966,%esi
  401ae5:	bf e8 3a 40 00       	mov    $0x403ae8,%edi
  401aea:	b8 00 00 00 00       	mov    $0x0,%eax
  401aef:	e8 0c f1 ff ff       	callq  400c00 <printf@plt>
  401af4:	48 8b 35 45 2c 20 00 	mov    0x202c45(%rip),%rsi        # 604740 <user_id>
  401afb:	bf a4 39 40 00       	mov    $0x4039a4,%edi
  401b00:	b8 00 00 00 00       	mov    $0x0,%eax
  401b05:	e8 f6 f0 ff ff       	callq  400c00 <printf@plt>
  401b0a:	48 8b 35 47 2c 20 00 	mov    0x202c47(%rip),%rsi        # 604758 <course>
  401b11:	bf b1 39 40 00       	mov    $0x4039b1,%edi
  401b16:	b8 00 00 00 00       	mov    $0x0,%eax
  401b1b:	e8 e0 f0 ff ff       	callq  400c00 <printf@plt>
  401b20:	48 8b 35 29 2c 20 00 	mov    0x202c29(%rip),%rsi        # 604750 <lab>
  401b27:	bf bd 39 40 00       	mov    $0x4039bd,%edi
  401b2c:	b8 00 00 00 00       	mov    $0x0,%eax
  401b31:	e8 ca f0 ff ff       	callq  400c00 <printf@plt>
  401b36:	48 8d b4 24 00 20 00 	lea    0x2000(%rsp),%rsi
  401b3d:	00 
  401b3e:	bf c6 39 40 00       	mov    $0x4039c6,%edi
  401b43:	b8 00 00 00 00       	mov    $0x0,%eax
  401b48:	e8 b3 f0 ff ff       	callq  400c00 <printf@plt>
  401b4d:	48 81 c4 00 40 00 00 	add    $0x4000,%rsp
  401b54:	5b                   	pop    %rbx
  401b55:	f3 c3                	repz retq 

0000000000401b57 <validate>:
  401b57:	53                   	push   %rbx
  401b58:	89 fb                	mov    %edi,%ebx
  401b5a:	83 3d c7 2f 20 00 00 	cmpl   $0x0,0x202fc7(%rip)        # 604b28 <is_checker>
  401b61:	74 60                	je     401bc3 <validate+0x6c>
  401b63:	39 3d b3 2f 20 00    	cmp    %edi,0x202fb3(%rip)        # 604b1c <vlevel>
  401b69:	74 14                	je     401b7f <validate+0x28>
  401b6b:	bf d2 39 40 00       	mov    $0x4039d2,%edi
  401b70:	e8 5b f0 ff ff       	callq  400bd0 <puts@plt>
  401b75:	b8 00 00 00 00       	mov    $0x0,%eax
  401b7a:	e8 c1 fd ff ff       	callq  401940 <check_fail>
  401b7f:	8b 35 93 2f 20 00    	mov    0x202f93(%rip),%esi        # 604b18 <check_level>
  401b85:	39 fe                	cmp    %edi,%esi
  401b87:	74 1b                	je     401ba4 <validate+0x4d>
  401b89:	89 fa                	mov    %edi,%edx
  401b8b:	bf 10 3b 40 00       	mov    $0x403b10,%edi
  401b90:	b8 00 00 00 00       	mov    $0x0,%eax
  401b95:	e8 66 f0 ff ff       	callq  400c00 <printf@plt>
  401b9a:	b8 00 00 00 00       	mov    $0x0,%eax
  401b9f:	e8 9c fd ff ff       	callq  401940 <check_fail>
  401ba4:	0f be 35 9d 3b 20 00 	movsbl 0x203b9d(%rip),%esi        # 605748 <target_prefix>
  401bab:	b9 40 4b 60 00       	mov    $0x604b40,%ecx
  401bb0:	89 fa                	mov    %edi,%edx
  401bb2:	bf f0 39 40 00       	mov    $0x4039f0,%edi
  401bb7:	b8 00 00 00 00       	mov    $0x0,%eax
  401bbc:	e8 3f f0 ff ff       	callq  400c00 <printf@plt>
  401bc1:	eb 44                	jmp    401c07 <validate+0xb0>
  401bc3:	39 3d 53 2f 20 00    	cmp    %edi,0x202f53(%rip)        # 604b1c <vlevel>
  401bc9:	74 18                	je     401be3 <validate+0x8c>
  401bcb:	bf d2 39 40 00       	mov    $0x4039d2,%edi
  401bd0:	e8 fb ef ff ff       	callq  400bd0 <puts@plt>
  401bd5:	89 de                	mov    %ebx,%esi
  401bd7:	bf 00 00 00 00       	mov    $0x0,%edi
  401bdc:	e8 e0 fd ff ff       	callq  4019c1 <notify_server>
  401be1:	eb 24                	jmp    401c07 <validate+0xb0>
  401be3:	0f be 15 5e 3b 20 00 	movsbl 0x203b5e(%rip),%edx        # 605748 <target_prefix>
  401bea:	89 fe                	mov    %edi,%esi
  401bec:	bf 38 3b 40 00       	mov    $0x403b38,%edi
  401bf1:	b8 00 00 00 00       	mov    $0x0,%eax
  401bf6:	e8 05 f0 ff ff       	callq  400c00 <printf@plt>
  401bfb:	89 de                	mov    %ebx,%esi
  401bfd:	bf 01 00 00 00       	mov    $0x1,%edi
  401c02:	e8 ba fd ff ff       	callq  4019c1 <notify_server>
  401c07:	5b                   	pop    %rbx
  401c08:	c3                   	retq   

0000000000401c09 <fail>:
  401c09:	48 83 ec 08          	sub    $0x8,%rsp
  401c0d:	83 3d 14 2f 20 00 00 	cmpl   $0x0,0x202f14(%rip)        # 604b28 <is_checker>
  401c14:	74 0a                	je     401c20 <fail+0x17>
  401c16:	b8 00 00 00 00       	mov    $0x0,%eax
  401c1b:	e8 20 fd ff ff       	callq  401940 <check_fail>
  401c20:	89 fe                	mov    %edi,%esi
  401c22:	bf 00 00 00 00       	mov    $0x0,%edi
  401c27:	e8 95 fd ff ff       	callq  4019c1 <notify_server>
  401c2c:	48 83 c4 08          	add    $0x8,%rsp
  401c30:	c3                   	retq   

0000000000401c31 <bushandler>:
  401c31:	48 83 ec 08          	sub    $0x8,%rsp
  401c35:	83 3d ec 2e 20 00 00 	cmpl   $0x0,0x202eec(%rip)        # 604b28 <is_checker>
  401c3c:	74 14                	je     401c52 <bushandler+0x21>
  401c3e:	bf 05 3a 40 00       	mov    $0x403a05,%edi
  401c43:	e8 88 ef ff ff       	callq  400bd0 <puts@plt>
  401c48:	b8 00 00 00 00       	mov    $0x0,%eax
  401c4d:	e8 ee fc ff ff       	callq  401940 <check_fail>
  401c52:	bf 70 3b 40 00       	mov    $0x403b70,%edi
  401c57:	e8 74 ef ff ff       	callq  400bd0 <puts@plt>
  401c5c:	bf 0f 3a 40 00       	mov    $0x403a0f,%edi
  401c61:	e8 6a ef ff ff       	callq  400bd0 <puts@plt>
  401c66:	be 00 00 00 00       	mov    $0x0,%esi
  401c6b:	bf 00 00 00 00       	mov    $0x0,%edi
  401c70:	e8 4c fd ff ff       	callq  4019c1 <notify_server>
  401c75:	bf 01 00 00 00       	mov    $0x1,%edi
  401c7a:	e8 e1 f0 ff ff       	callq  400d60 <exit@plt>

0000000000401c7f <seghandler>:
  401c7f:	48 83 ec 08          	sub    $0x8,%rsp
  401c83:	83 3d 9e 2e 20 00 00 	cmpl   $0x0,0x202e9e(%rip)        # 604b28 <is_checker>
  401c8a:	74 14                	je     401ca0 <seghandler+0x21>
  401c8c:	bf 25 3a 40 00       	mov    $0x403a25,%edi
  401c91:	e8 3a ef ff ff       	callq  400bd0 <puts@plt>
  401c96:	b8 00 00 00 00       	mov    $0x0,%eax
  401c9b:	e8 a0 fc ff ff       	callq  401940 <check_fail>
  401ca0:	bf 90 3b 40 00       	mov    $0x403b90,%edi
  401ca5:	e8 26 ef ff ff       	callq  400bd0 <puts@plt>
  401caa:	bf 0f 3a 40 00       	mov    $0x403a0f,%edi
  401caf:	e8 1c ef ff ff       	callq  400bd0 <puts@plt>
  401cb4:	be 00 00 00 00       	mov    $0x0,%esi
  401cb9:	bf 00 00 00 00       	mov    $0x0,%edi
  401cbe:	e8 fe fc ff ff       	callq  4019c1 <notify_server>
  401cc3:	bf 01 00 00 00       	mov    $0x1,%edi
  401cc8:	e8 93 f0 ff ff       	callq  400d60 <exit@plt>

0000000000401ccd <illegalhandler>:
  401ccd:	48 83 ec 08          	sub    $0x8,%rsp
  401cd1:	83 3d 50 2e 20 00 00 	cmpl   $0x0,0x202e50(%rip)        # 604b28 <is_checker>
  401cd8:	74 14                	je     401cee <illegalhandler+0x21>
  401cda:	bf 38 3a 40 00       	mov    $0x403a38,%edi
  401cdf:	e8 ec ee ff ff       	callq  400bd0 <puts@plt>
  401ce4:	b8 00 00 00 00       	mov    $0x0,%eax
  401ce9:	e8 52 fc ff ff       	callq  401940 <check_fail>
  401cee:	bf b8 3b 40 00       	mov    $0x403bb8,%edi
  401cf3:	e8 d8 ee ff ff       	callq  400bd0 <puts@plt>
  401cf8:	bf 0f 3a 40 00       	mov    $0x403a0f,%edi
  401cfd:	e8 ce ee ff ff       	callq  400bd0 <puts@plt>
  401d02:	be 00 00 00 00       	mov    $0x0,%esi
  401d07:	bf 00 00 00 00       	mov    $0x0,%edi
  401d0c:	e8 b0 fc ff ff       	callq  4019c1 <notify_server>
  401d11:	bf 01 00 00 00       	mov    $0x1,%edi
  401d16:	e8 45 f0 ff ff       	callq  400d60 <exit@plt>

0000000000401d1b <sigalrmhandler>:
  401d1b:	48 83 ec 08          	sub    $0x8,%rsp
  401d1f:	83 3d 02 2e 20 00 00 	cmpl   $0x0,0x202e02(%rip)        # 604b28 <is_checker>
  401d26:	74 14                	je     401d3c <sigalrmhandler+0x21>
  401d28:	bf 4c 3a 40 00       	mov    $0x403a4c,%edi
  401d2d:	e8 9e ee ff ff       	callq  400bd0 <puts@plt>
  401d32:	b8 00 00 00 00       	mov    $0x0,%eax
  401d37:	e8 04 fc ff ff       	callq  401940 <check_fail>
  401d3c:	be 05 00 00 00       	mov    $0x5,%esi
  401d41:	bf e8 3b 40 00       	mov    $0x403be8,%edi
  401d46:	b8 00 00 00 00       	mov    $0x0,%eax
  401d4b:	e8 b0 ee ff ff       	callq  400c00 <printf@plt>
  401d50:	be 00 00 00 00       	mov    $0x0,%esi
  401d55:	bf 00 00 00 00       	mov    $0x0,%edi
  401d5a:	e8 62 fc ff ff       	callq  4019c1 <notify_server>
  401d5f:	bf 01 00 00 00       	mov    $0x1,%edi
  401d64:	e8 f7 ef ff ff       	callq  400d60 <exit@plt>

0000000000401d69 <launch>:
  401d69:	55                   	push   %rbp
  401d6a:	48 89 e5             	mov    %rsp,%rbp
  401d6d:	48 89 fa             	mov    %rdi,%rdx
  401d70:	48 8d 47 1e          	lea    0x1e(%rdi),%rax
  401d74:	48 83 e0 f0          	and    $0xfffffffffffffff0,%rax
  401d78:	48 29 c4             	sub    %rax,%rsp
  401d7b:	48 8d 44 24 0f       	lea    0xf(%rsp),%rax
  401d80:	48 83 e0 f0          	and    $0xfffffffffffffff0,%rax
  401d84:	48 89 c7             	mov    %rax,%rdi
  401d87:	be f4 00 00 00       	mov    $0xf4,%esi
  401d8c:	e8 7f ee ff ff       	callq  400c10 <memset@plt>
  401d91:	48 8b 05 28 2d 20 00 	mov    0x202d28(%rip),%rax        # 604ac0 <stdin@@GLIBC_2.2.5>
  401d98:	48 39 05 71 2d 20 00 	cmp    %rax,0x202d71(%rip)        # 604b10 <infile>
  401d9f:	75 0f                	jne    401db0 <launch+0x47>
  401da1:	bf 54 3a 40 00       	mov    $0x403a54,%edi
  401da6:	b8 00 00 00 00       	mov    $0x0,%eax
  401dab:	e8 50 ee ff ff       	callq  400c00 <printf@plt>
  401db0:	c7 05 62 2d 20 00 00 	movl   $0x0,0x202d62(%rip)        # 604b1c <vlevel>
  401db7:	00 00 00 
  401dba:	b8 00 00 00 00       	mov    $0x0,%eax
  401dbf:	e8 ed fa ff ff       	callq  4018b1 <test>
  401dc4:	83 3d 5d 2d 20 00 00 	cmpl   $0x0,0x202d5d(%rip)        # 604b28 <is_checker>
  401dcb:	74 14                	je     401de1 <launch+0x78>
  401dcd:	bf 61 3a 40 00       	mov    $0x403a61,%edi
  401dd2:	e8 f9 ed ff ff       	callq  400bd0 <puts@plt>
  401dd7:	b8 00 00 00 00       	mov    $0x0,%eax
  401ddc:	e8 5f fb ff ff       	callq  401940 <check_fail>
  401de1:	bf 6c 3a 40 00       	mov    $0x403a6c,%edi
  401de6:	e8 e5 ed ff ff       	callq  400bd0 <puts@plt>
  401deb:	c9                   	leaveq 
  401dec:	c3                   	retq   

0000000000401ded <stable_launch>:
  401ded:	53                   	push   %rbx
  401dee:	48 89 3d 13 2d 20 00 	mov    %rdi,0x202d13(%rip)        # 604b08 <global_offset>
  401df5:	41 b9 00 00 00 00    	mov    $0x0,%r9d
  401dfb:	41 b8 00 00 00 00    	mov    $0x0,%r8d
  401e01:	b9 32 01 00 00       	mov    $0x132,%ecx
  401e06:	ba 07 00 00 00       	mov    $0x7,%edx
  401e0b:	be 00 00 10 00       	mov    $0x100000,%esi
  401e10:	bf 00 60 58 55       	mov    $0x55586000,%edi
  401e15:	e8 d6 ed ff ff       	callq  400bf0 <mmap@plt>
  401e1a:	48 89 c3             	mov    %rax,%rbx
  401e1d:	48 3d 00 60 58 55    	cmp    $0x55586000,%rax
  401e23:	74 32                	je     401e57 <stable_launch+0x6a>
  401e25:	be 00 00 10 00       	mov    $0x100000,%esi
  401e2a:	48 89 c7             	mov    %rax,%rdi
  401e2d:	e8 be ee ff ff       	callq  400cf0 <munmap@plt>
  401e32:	ba 00 60 58 55       	mov    $0x55586000,%edx
  401e37:	be 20 3c 40 00       	mov    $0x403c20,%esi
  401e3c:	48 8b 3d a5 2c 20 00 	mov    0x202ca5(%rip),%rdi        # 604ae8 <stderr@@GLIBC_2.2.5>
  401e43:	b8 00 00 00 00       	mov    $0x0,%eax
  401e48:	e8 43 ee ff ff       	callq  400c90 <fprintf@plt>
  401e4d:	bf 01 00 00 00       	mov    $0x1,%edi
  401e52:	e8 09 ef ff ff       	callq  400d60 <exit@plt>
  401e57:	48 8d 90 f8 ff 0f 00 	lea    0xffff8(%rax),%rdx
  401e5e:	48 89 15 eb 38 20 00 	mov    %rdx,0x2038eb(%rip)        # 605750 <stack_top>
  401e65:	48 89 e0             	mov    %rsp,%rax
  401e68:	48 89 d4             	mov    %rdx,%rsp
  401e6b:	48 89 c2             	mov    %rax,%rdx
  401e6e:	48 89 15 8b 2c 20 00 	mov    %rdx,0x202c8b(%rip)        # 604b00 <global_save_stack>
  401e75:	48 8b 3d 8c 2c 20 00 	mov    0x202c8c(%rip),%rdi        # 604b08 <global_offset>
  401e7c:	e8 e8 fe ff ff       	callq  401d69 <launch>
  401e81:	48 8b 05 78 2c 20 00 	mov    0x202c78(%rip),%rax        # 604b00 <global_save_stack>
  401e88:	48 89 c4             	mov    %rax,%rsp
  401e8b:	be 00 00 10 00       	mov    $0x100000,%esi
  401e90:	48 89 df             	mov    %rbx,%rdi
  401e93:	e8 58 ee ff ff       	callq  400cf0 <munmap@plt>
  401e98:	5b                   	pop    %rbx
  401e99:	c3                   	retq   

0000000000401e9a <rio_readinitb>:
  401e9a:	89 37                	mov    %esi,(%rdi)
  401e9c:	c7 47 04 00 00 00 00 	movl   $0x0,0x4(%rdi)
  401ea3:	48 8d 47 10          	lea    0x10(%rdi),%rax
  401ea7:	48 89 47 08          	mov    %rax,0x8(%rdi)
  401eab:	c3                   	retq   

0000000000401eac <sigalrm_handler>:
  401eac:	48 83 ec 08          	sub    $0x8,%rsp
  401eb0:	ba 00 00 00 00       	mov    $0x0,%edx
  401eb5:	be 60 3c 40 00       	mov    $0x403c60,%esi
  401eba:	48 8b 3d 27 2c 20 00 	mov    0x202c27(%rip),%rdi        # 604ae8 <stderr@@GLIBC_2.2.5>
  401ec1:	b8 00 00 00 00       	mov    $0x0,%eax
  401ec6:	e8 c5 ed ff ff       	callq  400c90 <fprintf@plt>
  401ecb:	bf 01 00 00 00       	mov    $0x1,%edi
  401ed0:	e8 8b ee ff ff       	callq  400d60 <exit@plt>

0000000000401ed5 <urlencode>:
  401ed5:	41 54                	push   %r12
  401ed7:	55                   	push   %rbp
  401ed8:	53                   	push   %rbx
  401ed9:	48 83 ec 10          	sub    $0x10,%rsp
  401edd:	48 89 fb             	mov    %rdi,%rbx
  401ee0:	48 89 f5             	mov    %rsi,%rbp
  401ee3:	b8 00 00 00 00       	mov    $0x0,%eax
  401ee8:	48 c7 c1 ff ff ff ff 	mov    $0xffffffffffffffff,%rcx
  401eef:	f2 ae                	repnz scas %es:(%rdi),%al
  401ef1:	48 f7 d1             	not    %rcx
  401ef4:	8d 41 ff             	lea    -0x1(%rcx),%eax
  401ef7:	e9 93 00 00 00       	jmpq   401f8f <urlencode+0xba>
  401efc:	0f b6 13             	movzbl (%rbx),%edx
  401eff:	80 fa 2a             	cmp    $0x2a,%dl
  401f02:	0f 94 c1             	sete   %cl
  401f05:	80 fa 2d             	cmp    $0x2d,%dl
  401f08:	0f 94 c0             	sete   %al
  401f0b:	08 c1                	or     %al,%cl
  401f0d:	75 1f                	jne    401f2e <urlencode+0x59>
  401f0f:	80 fa 2e             	cmp    $0x2e,%dl
  401f12:	74 1a                	je     401f2e <urlencode+0x59>
  401f14:	80 fa 5f             	cmp    $0x5f,%dl
  401f17:	74 15                	je     401f2e <urlencode+0x59>
  401f19:	8d 42 d0             	lea    -0x30(%rdx),%eax
  401f1c:	3c 09                	cmp    $0x9,%al
  401f1e:	76 0e                	jbe    401f2e <urlencode+0x59>
  401f20:	8d 42 bf             	lea    -0x41(%rdx),%eax
  401f23:	3c 19                	cmp    $0x19,%al
  401f25:	76 07                	jbe    401f2e <urlencode+0x59>
  401f27:	8d 42 9f             	lea    -0x61(%rdx),%eax
  401f2a:	3c 19                	cmp    $0x19,%al
  401f2c:	77 09                	ja     401f37 <urlencode+0x62>
  401f2e:	88 55 00             	mov    %dl,0x0(%rbp)
  401f31:	48 8d 6d 01          	lea    0x1(%rbp),%rbp
  401f35:	eb 51                	jmp    401f88 <urlencode+0xb3>
  401f37:	80 fa 20             	cmp    $0x20,%dl
  401f3a:	75 0a                	jne    401f46 <urlencode+0x71>
  401f3c:	c6 45 00 2b          	movb   $0x2b,0x0(%rbp)
  401f40:	48 8d 6d 01          	lea    0x1(%rbp),%rbp
  401f44:	eb 42                	jmp    401f88 <urlencode+0xb3>
  401f46:	8d 42 e0             	lea    -0x20(%rdx),%eax
  401f49:	3c 5f                	cmp    $0x5f,%al
  401f4b:	0f 96 c1             	setbe  %cl
  401f4e:	80 fa 09             	cmp    $0x9,%dl
  401f51:	0f 94 c0             	sete   %al
  401f54:	08 c1                	or     %al,%cl
  401f56:	74 45                	je     401f9d <urlencode+0xc8>
  401f58:	0f b6 d2             	movzbl %dl,%edx
  401f5b:	be f8 3c 40 00       	mov    $0x403cf8,%esi
  401f60:	48 89 e7             	mov    %rsp,%rdi
  401f63:	b8 00 00 00 00       	mov    $0x0,%eax
  401f68:	e8 e3 ed ff ff       	callq  400d50 <sprintf@plt>
  401f6d:	0f b6 04 24          	movzbl (%rsp),%eax
  401f71:	88 45 00             	mov    %al,0x0(%rbp)
  401f74:	0f b6 44 24 01       	movzbl 0x1(%rsp),%eax
  401f79:	88 45 01             	mov    %al,0x1(%rbp)
  401f7c:	0f b6 44 24 02       	movzbl 0x2(%rsp),%eax
  401f81:	88 45 02             	mov    %al,0x2(%rbp)
  401f84:	48 8d 6d 03          	lea    0x3(%rbp),%rbp
  401f88:	48 83 c3 01          	add    $0x1,%rbx
  401f8c:	44 89 e0             	mov    %r12d,%eax
  401f8f:	44 8d 60 ff          	lea    -0x1(%rax),%r12d
  401f93:	85 c0                	test   %eax,%eax
  401f95:	0f 85 61 ff ff ff    	jne    401efc <urlencode+0x27>
  401f9b:	eb 05                	jmp    401fa2 <urlencode+0xcd>
  401f9d:	b8 ff ff ff ff       	mov    $0xffffffff,%eax
  401fa2:	48 83 c4 10          	add    $0x10,%rsp
  401fa6:	5b                   	pop    %rbx
  401fa7:	5d                   	pop    %rbp
  401fa8:	41 5c                	pop    %r12
  401faa:	c3                   	retq   

0000000000401fab <rio_writen>:
  401fab:	41 55                	push   %r13
  401fad:	41 54                	push   %r12
  401faf:	55                   	push   %rbp
  401fb0:	53                   	push   %rbx
  401fb1:	48 83 ec 08          	sub    $0x8,%rsp
  401fb5:	41 89 fc             	mov    %edi,%r12d
  401fb8:	48 89 f5             	mov    %rsi,%rbp
  401fbb:	49 89 d5             	mov    %rdx,%r13
  401fbe:	48 89 d3             	mov    %rdx,%rbx
  401fc1:	eb 28                	jmp    401feb <rio_writen+0x40>
  401fc3:	48 89 da             	mov    %rbx,%rdx
  401fc6:	48 89 ee             	mov    %rbp,%rsi
  401fc9:	44 89 e7             	mov    %r12d,%edi
  401fcc:	e8 0f ec ff ff       	callq  400be0 <write@plt>
  401fd1:	48 85 c0             	test   %rax,%rax
  401fd4:	7f 0f                	jg     401fe5 <rio_writen+0x3a>
  401fd6:	e8 b5 eb ff ff       	callq  400b90 <__errno_location@plt>
  401fdb:	83 38 04             	cmpl   $0x4,(%rax)
  401fde:	75 15                	jne    401ff5 <rio_writen+0x4a>
  401fe0:	b8 00 00 00 00       	mov    $0x0,%eax
  401fe5:	48 29 c3             	sub    %rax,%rbx
  401fe8:	48 01 c5             	add    %rax,%rbp
  401feb:	48 85 db             	test   %rbx,%rbx
  401fee:	75 d3                	jne    401fc3 <rio_writen+0x18>
  401ff0:	4c 89 e8             	mov    %r13,%rax
  401ff3:	eb 07                	jmp    401ffc <rio_writen+0x51>
  401ff5:	48 c7 c0 ff ff ff ff 	mov    $0xffffffffffffffff,%rax
  401ffc:	48 83 c4 08          	add    $0x8,%rsp
  402000:	5b                   	pop    %rbx
  402001:	5d                   	pop    %rbp
  402002:	41 5c                	pop    %r12
  402004:	41 5d                	pop    %r13
  402006:	c3                   	retq   

0000000000402007 <rio_read>:
  402007:	41 56                	push   %r14
  402009:	41 55                	push   %r13
  40200b:	41 54                	push   %r12
  40200d:	55                   	push   %rbp
  40200e:	53                   	push   %rbx
  40200f:	48 89 fb             	mov    %rdi,%rbx
  402012:	49 89 f5             	mov    %rsi,%r13
  402015:	49 89 d4             	mov    %rdx,%r12
  402018:	eb 2e                	jmp    402048 <rio_read+0x41>
  40201a:	48 8d 6b 10          	lea    0x10(%rbx),%rbp
  40201e:	ba 00 20 00 00       	mov    $0x2000,%edx
  402023:	48 89 ee             	mov    %rbp,%rsi
  402026:	8b 3b                	mov    (%rbx),%edi
  402028:	e8 13 ec ff ff       	callq  400c40 <read@plt>
  40202d:	89 43 04             	mov    %eax,0x4(%rbx)
  402030:	85 c0                	test   %eax,%eax
  402032:	79 0c                	jns    402040 <rio_read+0x39>
  402034:	e8 57 eb ff ff       	callq  400b90 <__errno_location@plt>
  402039:	83 38 04             	cmpl   $0x4,(%rax)
  40203c:	74 0a                	je     402048 <rio_read+0x41>
  40203e:	eb 3b                	jmp    40207b <rio_read+0x74>
  402040:	85 c0                	test   %eax,%eax
  402042:	74 40                	je     402084 <rio_read+0x7d>
  402044:	48 89 6b 08          	mov    %rbp,0x8(%rbx)
  402048:	8b 43 04             	mov    0x4(%rbx),%eax
  40204b:	85 c0                	test   %eax,%eax
  40204d:	7e cb                	jle    40201a <rio_read+0x13>
  40204f:	45 89 e6             	mov    %r12d,%r14d
  402052:	89 c2                	mov    %eax,%edx
  402054:	4c 39 e2             	cmp    %r12,%rdx
  402057:	73 03                	jae    40205c <rio_read+0x55>
  402059:	41 89 c6             	mov    %eax,%r14d
  40205c:	49 63 ee             	movslq %r14d,%rbp
  40205f:	48 8b 73 08          	mov    0x8(%rbx),%rsi
  402063:	48 89 ea             	mov    %rbp,%rdx
  402066:	4c 89 ef             	mov    %r13,%rdi
  402069:	e8 f2 eb ff ff       	callq  400c60 <memcpy@plt>
  40206e:	48 01 6b 08          	add    %rbp,0x8(%rbx)
  402072:	44 29 73 04          	sub    %r14d,0x4(%rbx)
  402076:	48 89 e8             	mov    %rbp,%rax
  402079:	eb 0e                	jmp    402089 <rio_read+0x82>
  40207b:	48 c7 c0 ff ff ff ff 	mov    $0xffffffffffffffff,%rax
  402082:	eb 05                	jmp    402089 <rio_read+0x82>
  402084:	b8 00 00 00 00       	mov    $0x0,%eax
  402089:	5b                   	pop    %rbx
  40208a:	5d                   	pop    %rbp
  40208b:	41 5c                	pop    %r12
  40208d:	41 5d                	pop    %r13
  40208f:	41 5e                	pop    %r14
  402091:	c3                   	retq   

0000000000402092 <rio_readlineb>:
  402092:	41 55                	push   %r13
  402094:	41 54                	push   %r12
  402096:	55                   	push   %rbp
  402097:	53                   	push   %rbx
  402098:	48 83 ec 18          	sub    $0x18,%rsp
  40209c:	49 89 fd             	mov    %rdi,%r13
  40209f:	48 89 f5             	mov    %rsi,%rbp
  4020a2:	49 89 d4             	mov    %rdx,%r12
  4020a5:	bb 01 00 00 00       	mov    $0x1,%ebx
  4020aa:	eb 3f                	jmp    4020eb <rio_readlineb+0x59>
  4020ac:	ba 01 00 00 00       	mov    $0x1,%edx
  4020b1:	48 8d 74 24 0f       	lea    0xf(%rsp),%rsi
  4020b6:	4c 89 ef             	mov    %r13,%rdi
  4020b9:	e8 49 ff ff ff       	callq  402007 <rio_read>
  4020be:	83 f8 01             	cmp    $0x1,%eax
  4020c1:	75 15                	jne    4020d8 <rio_readlineb+0x46>
  4020c3:	48 8d 45 01          	lea    0x1(%rbp),%rax
  4020c7:	0f b6 54 24 0f       	movzbl 0xf(%rsp),%edx
  4020cc:	88 55 00             	mov    %dl,0x0(%rbp)
  4020cf:	80 7c 24 0f 0a       	cmpb   $0xa,0xf(%rsp)
  4020d4:	75 0e                	jne    4020e4 <rio_readlineb+0x52>
  4020d6:	eb 1a                	jmp    4020f2 <rio_readlineb+0x60>
  4020d8:	85 c0                	test   %eax,%eax
  4020da:	75 22                	jne    4020fe <rio_readlineb+0x6c>
  4020dc:	48 83 fb 01          	cmp    $0x1,%rbx
  4020e0:	75 13                	jne    4020f5 <rio_readlineb+0x63>
  4020e2:	eb 23                	jmp    402107 <rio_readlineb+0x75>
  4020e4:	48 83 c3 01          	add    $0x1,%rbx
  4020e8:	48 89 c5             	mov    %rax,%rbp
  4020eb:	4c 39 e3             	cmp    %r12,%rbx
  4020ee:	72 bc                	jb     4020ac <rio_readlineb+0x1a>
  4020f0:	eb 03                	jmp    4020f5 <rio_readlineb+0x63>
  4020f2:	48 89 c5             	mov    %rax,%rbp
  4020f5:	c6 45 00 00          	movb   $0x0,0x0(%rbp)
  4020f9:	48 89 d8             	mov    %rbx,%rax
  4020fc:	eb 0e                	jmp    40210c <rio_readlineb+0x7a>
  4020fe:	48 c7 c0 ff ff ff ff 	mov    $0xffffffffffffffff,%rax
  402105:	eb 05                	jmp    40210c <rio_readlineb+0x7a>
  402107:	b8 00 00 00 00       	mov    $0x0,%eax
  40210c:	48 83 c4 18          	add    $0x18,%rsp
  402110:	5b                   	pop    %rbx
  402111:	5d                   	pop    %rbp
  402112:	41 5c                	pop    %r12
  402114:	41 5d                	pop    %r13
  402116:	c3                   	retq   

0000000000402117 <submitr>:
  402117:	41 57                	push   %r15
  402119:	41 56                	push   %r14
  40211b:	41 55                	push   %r13
  40211d:	41 54                	push   %r12
  40211f:	55                   	push   %rbp
  402120:	53                   	push   %rbx
  402121:	48 81 ec 48 a0 00 00 	sub    $0xa048,%rsp
  402128:	49 89 fc             	mov    %rdi,%r12
  40212b:	89 74 24 04          	mov    %esi,0x4(%rsp)
  40212f:	49 89 d7             	mov    %rdx,%r15
  402132:	49 89 ce             	mov    %rcx,%r14
  402135:	4c 89 44 24 08       	mov    %r8,0x8(%rsp)
  40213a:	4d 89 cd             	mov    %r9,%r13
  40213d:	48 8b 9c 24 80 a0 00 	mov    0xa080(%rsp),%rbx
  402144:	00 
  402145:	c7 84 24 1c 20 00 00 	movl   $0x0,0x201c(%rsp)
  40214c:	00 00 00 00 
  402150:	ba 00 00 00 00       	mov    $0x0,%edx
  402155:	be 01 00 00 00       	mov    $0x1,%esi
  40215a:	bf 02 00 00 00       	mov    $0x2,%edi
  40215f:	e8 1c ec ff ff       	callq  400d80 <socket@plt>
  402164:	89 c5                	mov    %eax,%ebp
  402166:	85 c0                	test   %eax,%eax
  402168:	79 4e                	jns    4021b8 <submitr+0xa1>
  40216a:	48 b8 45 72 72 6f 72 	movabs $0x43203a726f727245,%rax
  402171:	3a 20 43 
  402174:	48 89 03             	mov    %rax,(%rbx)
  402177:	48 b8 6c 69 65 6e 74 	movabs $0x6e7520746e65696c,%rax
  40217e:	20 75 6e 
  402181:	48 89 43 08          	mov    %rax,0x8(%rbx)
  402185:	48 b8 61 62 6c 65 20 	movabs $0x206f7420656c6261,%rax
  40218c:	74 6f 20 
  40218f:	48 89 43 10          	mov    %rax,0x10(%rbx)
  402193:	48 b8 63 72 65 61 74 	movabs $0x7320657461657263,%rax
  40219a:	65 20 73 
  40219d:	48 89 43 18          	mov    %rax,0x18(%rbx)
  4021a1:	c7 43 20 6f 63 6b 65 	movl   $0x656b636f,0x20(%rbx)
  4021a8:	66 c7 43 24 74 00    	movw   $0x74,0x24(%rbx)
  4021ae:	b8 ff ff ff ff       	mov    $0xffffffff,%eax
  4021b3:	e9 6d 06 00 00       	jmpq   402825 <submitr+0x70e>
  4021b8:	4c 89 e7             	mov    %r12,%rdi
  4021bb:	e8 c0 ea ff ff       	callq  400c80 <gethostbyname@plt>
  4021c0:	48 85 c0             	test   %rax,%rax
  4021c3:	75 67                	jne    40222c <submitr+0x115>
  4021c5:	48 b8 45 72 72 6f 72 	movabs $0x44203a726f727245,%rax
  4021cc:	3a 20 44 
  4021cf:	48 89 03             	mov    %rax,(%rbx)
  4021d2:	48 b8 4e 53 20 69 73 	movabs $0x6e7520736920534e,%rax
  4021d9:	20 75 6e 
  4021dc:	48 89 43 08          	mov    %rax,0x8(%rbx)
  4021e0:	48 b8 61 62 6c 65 20 	movabs $0x206f7420656c6261,%rax
  4021e7:	74 6f 20 
  4021ea:	48 89 43 10          	mov    %rax,0x10(%rbx)
  4021ee:	48 b8 72 65 73 6f 6c 	movabs $0x2065766c6f736572,%rax
  4021f5:	76 65 20 
  4021f8:	48 89 43 18          	mov    %rax,0x18(%rbx)
  4021fc:	48 b8 73 65 72 76 65 	movabs $0x6120726576726573,%rax
  402203:	72 20 61 
  402206:	48 89 43 20          	mov    %rax,0x20(%rbx)
  40220a:	c7 43 28 64 64 72 65 	movl   $0x65726464,0x28(%rbx)
  402211:	66 c7 43 2c 73 73    	movw   $0x7373,0x2c(%rbx)
  402217:	c6 43 2e 00          	movb   $0x0,0x2e(%rbx)
  40221b:	89 ef                	mov    %ebp,%edi
  40221d:	e8 0e ea ff ff       	callq  400c30 <close@plt>
  402222:	b8 ff ff ff ff       	mov    $0xffffffff,%eax
  402227:	e9 f9 05 00 00       	jmpq   402825 <submitr+0x70e>
  40222c:	48 c7 84 24 30 a0 00 	movq   $0x0,0xa030(%rsp)
  402233:	00 00 00 00 00 
  402238:	48 c7 84 24 38 a0 00 	movq   $0x0,0xa038(%rsp)
  40223f:	00 00 00 00 00 
  402244:	66 c7 84 24 30 a0 00 	movw   $0x2,0xa030(%rsp)
  40224b:	00 02 00 
  40224e:	48 8b 48 18          	mov    0x18(%rax),%rcx
  402252:	48 63 50 14          	movslq 0x14(%rax),%rdx
  402256:	48 8d b4 24 34 a0 00 	lea    0xa034(%rsp),%rsi
  40225d:	00 
  40225e:	48 8b 39             	mov    (%rcx),%rdi
  402261:	e8 9a ea ff ff       	callq  400d00 <bcopy@plt>
  402266:	0f b7 44 24 04       	movzwl 0x4(%rsp),%eax
  40226b:	66 c1 c8 08          	ror    $0x8,%ax
  40226f:	66 89 84 24 32 a0 00 	mov    %ax,0xa032(%rsp)
  402276:	00 
  402277:	ba 10 00 00 00       	mov    $0x10,%edx
  40227c:	48 8d b4 24 30 a0 00 	lea    0xa030(%rsp),%rsi
  402283:	00 
  402284:	89 ef                	mov    %ebp,%edi
  402286:	e8 e5 ea ff ff       	callq  400d70 <connect@plt>
  40228b:	85 c0                	test   %eax,%eax
  40228d:	79 59                	jns    4022e8 <submitr+0x1d1>
  40228f:	48 b8 45 72 72 6f 72 	movabs $0x55203a726f727245,%rax
  402296:	3a 20 55 
  402299:	48 89 03             	mov    %rax,(%rbx)
  40229c:	48 b8 6e 61 62 6c 65 	movabs $0x6f7420656c62616e,%rax
  4022a3:	20 74 6f 
  4022a6:	48 89 43 08          	mov    %rax,0x8(%rbx)
  4022aa:	48 b8 20 63 6f 6e 6e 	movabs $0x7463656e6e6f6320,%rax
  4022b1:	65 63 74 
  4022b4:	48 89 43 10          	mov    %rax,0x10(%rbx)
  4022b8:	48 b8 20 74 6f 20 74 	movabs $0x20656874206f7420,%rax
  4022bf:	68 65 20 
  4022c2:	48 89 43 18          	mov    %rax,0x18(%rbx)
  4022c6:	c7 43 20 73 65 72 76 	movl   $0x76726573,0x20(%rbx)
  4022cd:	66 c7 43 24 65 72    	movw   $0x7265,0x24(%rbx)
  4022d3:	c6 43 26 00          	movb   $0x0,0x26(%rbx)
  4022d7:	89 ef                	mov    %ebp,%edi
  4022d9:	e8 52 e9 ff ff       	callq  400c30 <close@plt>
  4022de:	b8 ff ff ff ff       	mov    $0xffffffff,%eax
  4022e3:	e9 3d 05 00 00       	jmpq   402825 <submitr+0x70e>
  4022e8:	49 c7 c0 ff ff ff ff 	mov    $0xffffffffffffffff,%r8
  4022ef:	4c 89 ef             	mov    %r13,%rdi
  4022f2:	b8 00 00 00 00       	mov    $0x0,%eax
  4022f7:	4c 89 c1             	mov    %r8,%rcx
  4022fa:	f2 ae                	repnz scas %es:(%rdi),%al
  4022fc:	48 f7 d1             	not    %rcx
  4022ff:	48 89 ce             	mov    %rcx,%rsi
  402302:	4c 89 ff             	mov    %r15,%rdi
  402305:	4c 89 c1             	mov    %r8,%rcx
  402308:	f2 ae                	repnz scas %es:(%rdi),%al
  40230a:	48 89 ca             	mov    %rcx,%rdx
  40230d:	48 f7 d2             	not    %rdx
  402310:	4c 89 f7             	mov    %r14,%rdi
  402313:	4c 89 c1             	mov    %r8,%rcx
  402316:	f2 ae                	repnz scas %es:(%rdi),%al
  402318:	48 29 ca             	sub    %rcx,%rdx
  40231b:	48 8b 7c 24 08       	mov    0x8(%rsp),%rdi
  402320:	4c 89 c1             	mov    %r8,%rcx
  402323:	f2 ae                	repnz scas %es:(%rdi),%al
  402325:	48 29 ca             	sub    %rcx,%rdx
  402328:	48 8d 44 76 fd       	lea    -0x3(%rsi,%rsi,2),%rax
  40232d:	48 8d 44 02 7b       	lea    0x7b(%rdx,%rax,1),%rax
  402332:	48 3d 00 20 00 00    	cmp    $0x2000,%rax
  402338:	76 72                	jbe    4023ac <submitr+0x295>
  40233a:	48 b8 45 72 72 6f 72 	movabs $0x52203a726f727245,%rax
  402341:	3a 20 52 
  402344:	48 89 03             	mov    %rax,(%rbx)
  402347:	48 b8 65 73 75 6c 74 	movabs $0x747320746c757365,%rax
  40234e:	20 73 74 
  402351:	48 89 43 08          	mov    %rax,0x8(%rbx)
  402355:	48 b8 72 69 6e 67 20 	movabs $0x6f6f7420676e6972,%rax
  40235c:	74 6f 6f 
  40235f:	48 89 43 10          	mov    %rax,0x10(%rbx)
  402363:	48 b8 20 6c 61 72 67 	movabs $0x202e656772616c20,%rax
  40236a:	65 2e 20 
  40236d:	48 89 43 18          	mov    %rax,0x18(%rbx)
  402371:	48 b8 49 6e 63 72 65 	movabs $0x6573616572636e49,%rax
  402378:	61 73 65 
  40237b:	48 89 43 20          	mov    %rax,0x20(%rbx)
  40237f:	48 b8 20 53 55 42 4d 	movabs $0x5254494d42555320,%rax
  402386:	49 54 52 
  402389:	48 89 43 28          	mov    %rax,0x28(%rbx)
  40238d:	48 b8 5f 4d 41 58 42 	movabs $0x46554258414d5f,%rax
  402394:	55 46 00 
  402397:	48 89 43 30          	mov    %rax,0x30(%rbx)
  40239b:	89 ef                	mov    %ebp,%edi
  40239d:	e8 8e e8 ff ff       	callq  400c30 <close@plt>
  4023a2:	b8 ff ff ff ff       	mov    $0xffffffff,%eax
  4023a7:	e9 79 04 00 00       	jmpq   402825 <submitr+0x70e>
  4023ac:	48 8d b4 24 20 40 00 	lea    0x4020(%rsp),%rsi
  4023b3:	00 
  4023b4:	b9 00 04 00 00       	mov    $0x400,%ecx
  4023b9:	b8 00 00 00 00       	mov    $0x0,%eax
  4023be:	48 89 f7             	mov    %rsi,%rdi
  4023c1:	f3 48 ab             	rep stos %rax,%es:(%rdi)
  4023c4:	4c 89 ef             	mov    %r13,%rdi
  4023c7:	e8 09 fb ff ff       	callq  401ed5 <urlencode>
  4023cc:	85 c0                	test   %eax,%eax
  4023ce:	0f 89 8a 00 00 00    	jns    40245e <submitr+0x347>
  4023d4:	48 b8 45 72 72 6f 72 	movabs $0x52203a726f727245,%rax
  4023db:	3a 20 52 
  4023de:	48 89 03             	mov    %rax,(%rbx)
  4023e1:	48 b8 65 73 75 6c 74 	movabs $0x747320746c757365,%rax
  4023e8:	20 73 74 
  4023eb:	48 89 43 08          	mov    %rax,0x8(%rbx)
  4023ef:	48 b8 72 69 6e 67 20 	movabs $0x6e6f6320676e6972,%rax
  4023f6:	63 6f 6e 
  4023f9:	48 89 43 10          	mov    %rax,0x10(%rbx)
  4023fd:	48 b8 74 61 69 6e 73 	movabs $0x6e6120736e696174,%rax
  402404:	20 61 6e 
  402407:	48 89 43 18          	mov    %rax,0x18(%rbx)
  40240b:	48 b8 20 69 6c 6c 65 	movabs $0x6c6167656c6c6920,%rax
  402412:	67 61 6c 
  402415:	48 89 43 20          	mov    %rax,0x20(%rbx)
  402419:	48 b8 20 6f 72 20 75 	movabs $0x72706e7520726f20,%rax
  402420:	6e 70 72 
  402423:	48 89 43 28          	mov    %rax,0x28(%rbx)
  402427:	48 b8 69 6e 74 61 62 	movabs $0x20656c6261746e69,%rax
  40242e:	6c 65 20 
  402431:	48 89 43 30          	mov    %rax,0x30(%rbx)
  402435:	48 b8 63 68 61 72 61 	movabs $0x6574636172616863,%rax
  40243c:	63 74 65 
  40243f:	48 89 43 38          	mov    %rax,0x38(%rbx)
  402443:	66 c7 43 40 72 2e    	movw   $0x2e72,0x40(%rbx)
  402449:	c6 43 42 00          	movb   $0x0,0x42(%rbx)
  40244d:	89 ef                	mov    %ebp,%edi
  40244f:	e8 dc e7 ff ff       	callq  400c30 <close@plt>
  402454:	b8 ff ff ff ff       	mov    $0xffffffff,%eax
  402459:	e9 c7 03 00 00       	jmpq   402825 <submitr+0x70e>
  40245e:	4d 89 e1             	mov    %r12,%r9
  402461:	4c 8d 84 24 20 40 00 	lea    0x4020(%rsp),%r8
  402468:	00 
  402469:	4c 89 f9             	mov    %r15,%rcx
  40246c:	4c 89 f2             	mov    %r14,%rdx
  40246f:	be 88 3c 40 00       	mov    $0x403c88,%esi
  402474:	48 8d bc 24 20 60 00 	lea    0x6020(%rsp),%rdi
  40247b:	00 
  40247c:	b8 00 00 00 00       	mov    $0x0,%eax
  402481:	e8 ca e8 ff ff       	callq  400d50 <sprintf@plt>
  402486:	48 8d bc 24 20 60 00 	lea    0x6020(%rsp),%rdi
  40248d:	00 
  40248e:	b8 00 00 00 00       	mov    $0x0,%eax
  402493:	48 c7 c1 ff ff ff ff 	mov    $0xffffffffffffffff,%rcx
  40249a:	f2 ae                	repnz scas %es:(%rdi),%al
  40249c:	48 f7 d1             	not    %rcx
  40249f:	48 8d 51 ff          	lea    -0x1(%rcx),%rdx
  4024a3:	48 8d b4 24 20 60 00 	lea    0x6020(%rsp),%rsi
  4024aa:	00 
  4024ab:	89 ef                	mov    %ebp,%edi
  4024ad:	e8 f9 fa ff ff       	callq  401fab <rio_writen>
  4024b2:	48 85 c0             	test   %rax,%rax
  4024b5:	79 6e                	jns    402525 <submitr+0x40e>
  4024b7:	48 b8 45 72 72 6f 72 	movabs $0x43203a726f727245,%rax
  4024be:	3a 20 43 
  4024c1:	48 89 03             	mov    %rax,(%rbx)
  4024c4:	48 b8 6c 69 65 6e 74 	movabs $0x6e7520746e65696c,%rax
  4024cb:	20 75 6e 
  4024ce:	48 89 43 08          	mov    %rax,0x8(%rbx)
  4024d2:	48 b8 61 62 6c 65 20 	movabs $0x206f7420656c6261,%rax
  4024d9:	74 6f 20 
  4024dc:	48 89 43 10          	mov    %rax,0x10(%rbx)
  4024e0:	48 b8 77 72 69 74 65 	movabs $0x6f74206574697277,%rax
  4024e7:	20 74 6f 
  4024ea:	48 89 43 18          	mov    %rax,0x18(%rbx)
  4024ee:	48 b8 20 74 68 65 20 	movabs $0x7365722065687420,%rax
  4024f5:	72 65 73 
  4024f8:	48 89 43 20          	mov    %rax,0x20(%rbx)
  4024fc:	48 b8 75 6c 74 20 73 	movabs $0x7672657320746c75,%rax
  402503:	65 72 76 
  402506:	48 89 43 28          	mov    %rax,0x28(%rbx)
  40250a:	66 c7 43 30 65 72    	movw   $0x7265,0x30(%rbx)
  402510:	c6 43 32 00          	movb   $0x0,0x32(%rbx)
  402514:	89 ef                	mov    %ebp,%edi
  402516:	e8 15 e7 ff ff       	callq  400c30 <close@plt>
  40251b:	b8 ff ff ff ff       	mov    $0xffffffff,%eax
  402520:	e9 00 03 00 00       	jmpq   402825 <submitr+0x70e>
  402525:	89 ee                	mov    %ebp,%esi
  402527:	48 8d bc 24 20 80 00 	lea    0x8020(%rsp),%rdi
  40252e:	00 
  40252f:	e8 66 f9 ff ff       	callq  401e9a <rio_readinitb>
  402534:	ba 00 20 00 00       	mov    $0x2000,%edx
  402539:	48 8d b4 24 20 60 00 	lea    0x6020(%rsp),%rsi
  402540:	00 
  402541:	48 8d bc 24 20 80 00 	lea    0x8020(%rsp),%rdi
  402548:	00 
  402549:	e8 44 fb ff ff       	callq  402092 <rio_readlineb>
  40254e:	48 85 c0             	test   %rax,%rax
  402551:	7f 7d                	jg     4025d0 <submitr+0x4b9>
  402553:	48 b8 45 72 72 6f 72 	movabs $0x43203a726f727245,%rax
  40255a:	3a 20 43 
  40255d:	48 89 03             	mov    %rax,(%rbx)
  402560:	48 b8 6c 69 65 6e 74 	movabs $0x6e7520746e65696c,%rax
  402567:	20 75 6e 
  40256a:	48 89 43 08          	mov    %rax,0x8(%rbx)
  40256e:	48 b8 61 62 6c 65 20 	movabs $0x206f7420656c6261,%rax
  402575:	74 6f 20 
  402578:	48 89 43 10          	mov    %rax,0x10(%rbx)
  40257c:	48 b8 72 65 61 64 20 	movabs $0x7269662064616572,%rax
  402583:	66 69 72 
  402586:	48 89 43 18          	mov    %rax,0x18(%rbx)
  40258a:	48 b8 73 74 20 68 65 	movabs $0x6564616568207473,%rax
  402591:	61 64 65 
  402594:	48 89 43 20          	mov    %rax,0x20(%rbx)
  402598:	48 b8 72 20 66 72 6f 	movabs $0x72206d6f72662072,%rax
  40259f:	6d 20 72 
  4025a2:	48 89 43 28          	mov    %rax,0x28(%rbx)
  4025a6:	48 b8 65 73 75 6c 74 	movabs $0x657320746c757365,%rax
  4025ad:	20 73 65 
  4025b0:	48 89 43 30          	mov    %rax,0x30(%rbx)
  4025b4:	c7 43 38 72 76 65 72 	movl   $0x72657672,0x38(%rbx)
  4025bb:	c6 43 3c 00          	movb   $0x0,0x3c(%rbx)
  4025bf:	89 ef                	mov    %ebp,%edi
  4025c1:	e8 6a e6 ff ff       	callq  400c30 <close@plt>
  4025c6:	b8 ff ff ff ff       	mov    $0xffffffff,%eax
  4025cb:	e9 55 02 00 00       	jmpq   402825 <submitr+0x70e>
  4025d0:	4c 8d 44 24 10       	lea    0x10(%rsp),%r8
  4025d5:	48 8d 8c 24 1c 20 00 	lea    0x201c(%rsp),%rcx
  4025dc:	00 
  4025dd:	48 8d 94 24 20 20 00 	lea    0x2020(%rsp),%rdx
  4025e4:	00 
  4025e5:	be ff 3c 40 00       	mov    $0x403cff,%esi
  4025ea:	48 8d bc 24 20 60 00 	lea    0x6020(%rsp),%rdi
  4025f1:	00 
  4025f2:	b8 00 00 00 00       	mov    $0x0,%eax
  4025f7:	e8 e4 e6 ff ff       	callq  400ce0 <__isoc99_sscanf@plt>
  4025fc:	e9 98 00 00 00       	jmpq   402699 <submitr+0x582>
  402601:	ba 00 20 00 00       	mov    $0x2000,%edx
  402606:	48 8d b4 24 20 60 00 	lea    0x6020(%rsp),%rsi
  40260d:	00 
  40260e:	48 8d bc 24 20 80 00 	lea    0x8020(%rsp),%rdi
  402615:	00 
  402616:	e8 77 fa ff ff       	callq  402092 <rio_readlineb>
  40261b:	48 85 c0             	test   %rax,%rax
  40261e:	7f 79                	jg     402699 <submitr+0x582>
  402620:	48 b8 45 72 72 6f 72 	movabs $0x43203a726f727245,%rax
  402627:	3a 20 43 
  40262a:	48 89 03             	mov    %rax,(%rbx)
  40262d:	48 b8 6c 69 65 6e 74 	movabs $0x6e7520746e65696c,%rax
  402634:	20 75 6e 
  402637:	48 89 43 08          	mov    %rax,0x8(%rbx)
  40263b:	48 b8 61 62 6c 65 20 	movabs $0x206f7420656c6261,%rax
  402642:	74 6f 20 
  402645:	48 89 43 10          	mov    %rax,0x10(%rbx)
  402649:	48 b8 72 65 61 64 20 	movabs $0x6165682064616572,%rax
  402650:	68 65 61 
  402653:	48 89 43 18          	mov    %rax,0x18(%rbx)
  402657:	48 b8 64 65 72 73 20 	movabs $0x6f72662073726564,%rax
  40265e:	66 72 6f 
  402661:	48 89 43 20          	mov    %rax,0x20(%rbx)
  402665:	48 b8 6d 20 74 68 65 	movabs $0x657220656874206d,%rax
  40266c:	20 72 65 
  40266f:	48 89 43 28          	mov    %rax,0x28(%rbx)
  402673:	48 b8 73 75 6c 74 20 	movabs $0x72657320746c7573,%rax
  40267a:	73 65 72 
  40267d:	48 89 43 30          	mov    %rax,0x30(%rbx)
  402681:	c7 43 38 76 65 72 00 	movl   $0x726576,0x38(%rbx)
  402688:	89 ef                	mov    %ebp,%edi
  40268a:	e8 a1 e5 ff ff       	callq  400c30 <close@plt>
  40268f:	b8 ff ff ff ff       	mov    $0xffffffff,%eax
  402694:	e9 8c 01 00 00       	jmpq   402825 <submitr+0x70e>
  402699:	0f b6 84 24 20 60 00 	movzbl 0x6020(%rsp),%eax
  4026a0:	00 
  4026a1:	83 e8 0d             	sub    $0xd,%eax
  4026a4:	75 15                	jne    4026bb <submitr+0x5a4>
  4026a6:	0f b6 84 24 21 60 00 	movzbl 0x6021(%rsp),%eax
  4026ad:	00 
  4026ae:	83 e8 0a             	sub    $0xa,%eax
  4026b1:	75 08                	jne    4026bb <submitr+0x5a4>
  4026b3:	0f b6 84 24 22 60 00 	movzbl 0x6022(%rsp),%eax
  4026ba:	00 
  4026bb:	85 c0                	test   %eax,%eax
  4026bd:	0f 85 3e ff ff ff    	jne    402601 <submitr+0x4ea>
  4026c3:	ba 00 20 00 00       	mov    $0x2000,%edx
  4026c8:	48 8d b4 24 20 60 00 	lea    0x6020(%rsp),%rsi
  4026cf:	00 
  4026d0:	48 8d bc 24 20 80 00 	lea    0x8020(%rsp),%rdi
  4026d7:	00 
  4026d8:	e8 b5 f9 ff ff       	callq  402092 <rio_readlineb>
  4026dd:	48 85 c0             	test   %rax,%rax
  4026e0:	0f 8f 83 00 00 00    	jg     402769 <submitr+0x652>
  4026e6:	48 b8 45 72 72 6f 72 	movabs $0x43203a726f727245,%rax
  4026ed:	3a 20 43 
  4026f0:	48 89 03             	mov    %rax,(%rbx)
  4026f3:	48 b8 6c 69 65 6e 74 	movabs $0x6e7520746e65696c,%rax
  4026fa:	20 75 6e 
  4026fd:	48 89 43 08          	mov    %rax,0x8(%rbx)
  402701:	48 b8 61 62 6c 65 20 	movabs $0x206f7420656c6261,%rax
  402708:	74 6f 20 
  40270b:	48 89 43 10          	mov    %rax,0x10(%rbx)
  40270f:	48 b8 72 65 61 64 20 	movabs $0x6174732064616572,%rax
  402716:	73 74 61 
  402719:	48 89 43 18          	mov    %rax,0x18(%rbx)
  40271d:	48 b8 74 75 73 20 6d 	movabs $0x7373656d20737574,%rax
  402724:	65 73 73 
  402727:	48 89 43 20          	mov    %rax,0x20(%rbx)
  40272b:	48 b8 61 67 65 20 66 	movabs $0x6d6f726620656761,%rax
  402732:	72 6f 6d 
  402735:	48 89 43 28          	mov    %rax,0x28(%rbx)
  402739:	48 b8 20 72 65 73 75 	movabs $0x20746c7573657220,%rax
  402740:	6c 74 20 
  402743:	48 89 43 30          	mov    %rax,0x30(%rbx)
  402747:	c7 43 38 73 65 72 76 	movl   $0x76726573,0x38(%rbx)
  40274e:	66 c7 43 3c 65 72    	movw   $0x7265,0x3c(%rbx)
  402754:	c6 43 3e 00          	movb   $0x0,0x3e(%rbx)
  402758:	89 ef                	mov    %ebp,%edi
  40275a:	e8 d1 e4 ff ff       	callq  400c30 <close@plt>
  40275f:	b8 ff ff ff ff       	mov    $0xffffffff,%eax
  402764:	e9 bc 00 00 00       	jmpq   402825 <submitr+0x70e>
  402769:	8b 94 24 1c 20 00 00 	mov    0x201c(%rsp),%edx
  402770:	81 fa c8 00 00 00    	cmp    $0xc8,%edx
  402776:	74 28                	je     4027a0 <submitr+0x689>
  402778:	48 8d 4c 24 10       	lea    0x10(%rsp),%rcx
  40277d:	be c8 3c 40 00       	mov    $0x403cc8,%esi
  402782:	48 89 df             	mov    %rbx,%rdi
  402785:	b8 00 00 00 00       	mov    $0x0,%eax
  40278a:	e8 c1 e5 ff ff       	callq  400d50 <sprintf@plt>
  40278f:	89 ef                	mov    %ebp,%edi
  402791:	e8 9a e4 ff ff       	callq  400c30 <close@plt>
  402796:	b8 ff ff ff ff       	mov    $0xffffffff,%eax
  40279b:	e9 85 00 00 00       	jmpq   402825 <submitr+0x70e>
  4027a0:	48 8d b4 24 20 60 00 	lea    0x6020(%rsp),%rsi
  4027a7:	00 
  4027a8:	48 89 df             	mov    %rbx,%rdi
  4027ab:	e8 10 e4 ff ff       	callq  400bc0 <strcpy@plt>
  4027b0:	89 ef                	mov    %ebp,%edi
  4027b2:	e8 79 e4 ff ff       	callq  400c30 <close@plt>
  4027b7:	0f b6 03             	movzbl (%rbx),%eax
  4027ba:	83 e8 4f             	sub    $0x4f,%eax
  4027bd:	89 c2                	mov    %eax,%edx
  4027bf:	75 18                	jne    4027d9 <submitr+0x6c2>
  4027c1:	0f b6 43 01          	movzbl 0x1(%rbx),%eax
  4027c5:	83 e8 4b             	sub    $0x4b,%eax
  4027c8:	75 0f                	jne    4027d9 <submitr+0x6c2>
  4027ca:	0f b6 43 02          	movzbl 0x2(%rbx),%eax
  4027ce:	83 e8 0a             	sub    $0xa,%eax
  4027d1:	75 06                	jne    4027d9 <submitr+0x6c2>
  4027d3:	0f b6 43 03          	movzbl 0x3(%rbx),%eax
  4027d7:	eb 00                	jmp    4027d9 <submitr+0x6c2>
  4027d9:	85 c0                	test   %eax,%eax
  4027db:	74 3c                	je     402819 <submitr+0x702>
  4027dd:	bf 10 3d 40 00       	mov    $0x403d10,%edi
  4027e2:	b9 05 00 00 00       	mov    $0x5,%ecx
  4027e7:	48 89 de             	mov    %rbx,%rsi
  4027ea:	f3 a6                	repz cmpsb %es:(%rdi),%ds:(%rsi)
  4027ec:	0f 97 c0             	seta   %al
  4027ef:	0f 92 c1             	setb   %cl
  4027f2:	29 c8                	sub    %ecx,%eax
  4027f4:	0f be c0             	movsbl %al,%eax
  4027f7:	85 c0                	test   %eax,%eax
  4027f9:	74 2a                	je     402825 <submitr+0x70e>
  4027fb:	85 d2                	test   %edx,%edx
  4027fd:	75 0f                	jne    40280e <submitr+0x6f7>
  4027ff:	0f b6 43 01          	movzbl 0x1(%rbx),%eax
  402803:	83 e8 4b             	sub    $0x4b,%eax
  402806:	89 c2                	mov    %eax,%edx
  402808:	75 04                	jne    40280e <submitr+0x6f7>
  40280a:	0f b6 53 02          	movzbl 0x2(%rbx),%edx
  40280e:	85 d2                	test   %edx,%edx
  402810:	75 0e                	jne    402820 <submitr+0x709>
  402812:	b8 00 00 00 00       	mov    $0x0,%eax
  402817:	eb 0c                	jmp    402825 <submitr+0x70e>
  402819:	b8 00 00 00 00       	mov    $0x0,%eax
  40281e:	eb 05                	jmp    402825 <submitr+0x70e>
  402820:	b8 ff ff ff ff       	mov    $0xffffffff,%eax
  402825:	48 81 c4 48 a0 00 00 	add    $0xa048,%rsp
  40282c:	5b                   	pop    %rbx
  40282d:	5d                   	pop    %rbp
  40282e:	41 5c                	pop    %r12
  402830:	41 5d                	pop    %r13
  402832:	41 5e                	pop    %r14
  402834:	41 5f                	pop    %r15
  402836:	c3                   	retq   

0000000000402837 <init_timeout>:
  402837:	53                   	push   %rbx
  402838:	89 fb                	mov    %edi,%ebx
  40283a:	85 ff                	test   %edi,%edi
  40283c:	74 1f                	je     40285d <init_timeout+0x26>
  40283e:	85 ff                	test   %edi,%edi
  402840:	79 05                	jns    402847 <init_timeout+0x10>
  402842:	bb 00 00 00 00       	mov    $0x0,%ebx
  402847:	be ac 1e 40 00       	mov    $0x401eac,%esi
  40284c:	bf 0e 00 00 00       	mov    $0xe,%edi
  402851:	e8 1a e4 ff ff       	callq  400c70 <signal@plt>
  402856:	89 df                	mov    %ebx,%edi
  402858:	e8 c3 e3 ff ff       	callq  400c20 <alarm@plt>
  40285d:	5b                   	pop    %rbx
  40285e:	c3                   	retq   

000000000040285f <init_driver>:
  40285f:	55                   	push   %rbp
  402860:	53                   	push   %rbx
  402861:	48 83 ec 18          	sub    $0x18,%rsp
  402865:	48 89 fd             	mov    %rdi,%rbp
  402868:	be 01 00 00 00       	mov    $0x1,%esi
  40286d:	bf 0d 00 00 00       	mov    $0xd,%edi
  402872:	e8 f9 e3 ff ff       	callq  400c70 <signal@plt>
  402877:	be 01 00 00 00       	mov    $0x1,%esi
  40287c:	bf 1d 00 00 00       	mov    $0x1d,%edi
  402881:	e8 ea e3 ff ff       	callq  400c70 <signal@plt>
  402886:	be 01 00 00 00       	mov    $0x1,%esi
  40288b:	bf 1d 00 00 00       	mov    $0x1d,%edi
  402890:	e8 db e3 ff ff       	callq  400c70 <signal@plt>
  402895:	ba 00 00 00 00       	mov    $0x0,%edx
  40289a:	be 01 00 00 00       	mov    $0x1,%esi
  40289f:	bf 02 00 00 00       	mov    $0x2,%edi
  4028a4:	e8 d7 e4 ff ff       	callq  400d80 <socket@plt>
  4028a9:	89 c3                	mov    %eax,%ebx
  4028ab:	85 c0                	test   %eax,%eax
  4028ad:	79 4f                	jns    4028fe <init_driver+0x9f>
  4028af:	48 b8 45 72 72 6f 72 	movabs $0x43203a726f727245,%rax
  4028b6:	3a 20 43 
  4028b9:	48 89 45 00          	mov    %rax,0x0(%rbp)
  4028bd:	48 b8 6c 69 65 6e 74 	movabs $0x6e7520746e65696c,%rax
  4028c4:	20 75 6e 
  4028c7:	48 89 45 08          	mov    %rax,0x8(%rbp)
  4028cb:	48 b8 61 62 6c 65 20 	movabs $0x206f7420656c6261,%rax
  4028d2:	74 6f 20 
  4028d5:	48 89 45 10          	mov    %rax,0x10(%rbp)
  4028d9:	48 b8 63 72 65 61 74 	movabs $0x7320657461657263,%rax
  4028e0:	65 20 73 
  4028e3:	48 89 45 18          	mov    %rax,0x18(%rbp)
  4028e7:	c7 45 20 6f 63 6b 65 	movl   $0x656b636f,0x20(%rbp)
  4028ee:	66 c7 45 24 74 00    	movw   $0x74,0x24(%rbp)
  4028f4:	b8 ff ff ff ff       	mov    $0xffffffff,%eax
  4028f9:	e9 23 01 00 00       	jmpq   402a21 <init_driver+0x1c2>
  4028fe:	bf 68 36 40 00       	mov    $0x403668,%edi
  402903:	e8 78 e3 ff ff       	callq  400c80 <gethostbyname@plt>
  402908:	48 85 c0             	test   %rax,%rax
  40290b:	75 68                	jne    402975 <init_driver+0x116>
  40290d:	48 b8 45 72 72 6f 72 	movabs $0x44203a726f727245,%rax
  402914:	3a 20 44 
  402917:	48 89 45 00          	mov    %rax,0x0(%rbp)
  40291b:	48 b8 4e 53 20 69 73 	movabs $0x6e7520736920534e,%rax
  402922:	20 75 6e 
  402925:	48 89 45 08          	mov    %rax,0x8(%rbp)
  402929:	48 b8 61 62 6c 65 20 	movabs $0x206f7420656c6261,%rax
  402930:	74 6f 20 
  402933:	48 89 45 10          	mov    %rax,0x10(%rbp)
  402937:	48 b8 72 65 73 6f 6c 	movabs $0x2065766c6f736572,%rax
  40293e:	76 65 20 
  402941:	48 89 45 18          	mov    %rax,0x18(%rbp)
  402945:	48 b8 73 65 72 76 65 	movabs $0x6120726576726573,%rax
  40294c:	72 20 61 
  40294f:	48 89 45 20          	mov    %rax,0x20(%rbp)
  402953:	c7 45 28 64 64 72 65 	movl   $0x65726464,0x28(%rbp)
  40295a:	66 c7 45 2c 73 73    	movw   $0x7373,0x2c(%rbp)
  402960:	c6 45 2e 00          	movb   $0x0,0x2e(%rbp)
  402964:	89 df                	mov    %ebx,%edi
  402966:	e8 c5 e2 ff ff       	callq  400c30 <close@plt>
  40296b:	b8 ff ff ff ff       	mov    $0xffffffff,%eax
  402970:	e9 ac 00 00 00       	jmpq   402a21 <init_driver+0x1c2>
  402975:	48 c7 04 24 00 00 00 	movq   $0x0,(%rsp)
  40297c:	00 
  40297d:	48 c7 44 24 08 00 00 	movq   $0x0,0x8(%rsp)
  402984:	00 00 
  402986:	66 c7 04 24 02 00    	movw   $0x2,(%rsp)
  40298c:	48 8b 48 18          	mov    0x18(%rax),%rcx
  402990:	48 63 50 14          	movslq 0x14(%rax),%rdx
  402994:	48 8d 74 24 04       	lea    0x4(%rsp),%rsi
  402999:	48 8b 39             	mov    (%rcx),%rdi
  40299c:	e8 5f e3 ff ff       	callq  400d00 <bcopy@plt>
  4029a1:	66 c7 44 24 02 3c 9a 	movw   $0x9a3c,0x2(%rsp)
  4029a8:	ba 10 00 00 00       	mov    $0x10,%edx
  4029ad:	48 89 e6             	mov    %rsp,%rsi
  4029b0:	89 df                	mov    %ebx,%edi
  4029b2:	e8 b9 e3 ff ff       	callq  400d70 <connect@plt>
  4029b7:	85 c0                	test   %eax,%eax
  4029b9:	79 50                	jns    402a0b <init_driver+0x1ac>
  4029bb:	48 b8 45 72 72 6f 72 	movabs $0x55203a726f727245,%rax
  4029c2:	3a 20 55 
  4029c5:	48 89 45 00          	mov    %rax,0x0(%rbp)
  4029c9:	48 b8 6e 61 62 6c 65 	movabs $0x6f7420656c62616e,%rax
  4029d0:	20 74 6f 
  4029d3:	48 89 45 08          	mov    %rax,0x8(%rbp)
  4029d7:	48 b8 20 63 6f 6e 6e 	movabs $0x7463656e6e6f6320,%rax
  4029de:	65 63 74 
  4029e1:	48 89 45 10          	mov    %rax,0x10(%rbp)
  4029e5:	48 b8 20 74 6f 20 73 	movabs $0x76726573206f7420,%rax
  4029ec:	65 72 76 
  4029ef:	48 89 45 18          	mov    %rax,0x18(%rbp)
  4029f3:	66 c7 45 20 65 72    	movw   $0x7265,0x20(%rbp)
  4029f9:	c6 45 22 00          	movb   $0x0,0x22(%rbp)
  4029fd:	89 df                	mov    %ebx,%edi
  4029ff:	e8 2c e2 ff ff       	callq  400c30 <close@plt>
  402a04:	b8 ff ff ff ff       	mov    $0xffffffff,%eax
  402a09:	eb 16                	jmp    402a21 <init_driver+0x1c2>
  402a0b:	89 df                	mov    %ebx,%edi
  402a0d:	e8 1e e2 ff ff       	callq  400c30 <close@plt>
  402a12:	66 c7 45 00 4f 4b    	movw   $0x4b4f,0x0(%rbp)
  402a18:	c6 45 02 00          	movb   $0x0,0x2(%rbp)
  402a1c:	b8 00 00 00 00       	mov    $0x0,%eax
  402a21:	48 83 c4 18          	add    $0x18,%rsp
  402a25:	5b                   	pop    %rbx
  402a26:	5d                   	pop    %rbp
  402a27:	c3                   	retq   

0000000000402a28 <driver_post>:
  402a28:	53                   	push   %rbx
  402a29:	4c 89 cb             	mov    %r9,%rbx
  402a2c:	45 85 c0             	test   %r8d,%r8d
  402a2f:	74 22                	je     402a53 <driver_post+0x2b>
  402a31:	48 89 ce             	mov    %rcx,%rsi
  402a34:	bf 15 3d 40 00       	mov    $0x403d15,%edi
  402a39:	b8 00 00 00 00       	mov    $0x0,%eax
  402a3e:	e8 bd e1 ff ff       	callq  400c00 <printf@plt>
  402a43:	66 c7 03 4f 4b       	movw   $0x4b4f,(%rbx)
  402a48:	c6 43 02 00          	movb   $0x0,0x2(%rbx)
  402a4c:	b8 00 00 00 00       	mov    $0x0,%eax
  402a51:	eb 3f                	jmp    402a92 <driver_post+0x6a>
  402a53:	48 85 ff             	test   %rdi,%rdi
  402a56:	74 2c                	je     402a84 <driver_post+0x5c>
  402a58:	80 3f 00             	cmpb   $0x0,(%rdi)
  402a5b:	74 27                	je     402a84 <driver_post+0x5c>
  402a5d:	48 83 ec 08          	sub    $0x8,%rsp
  402a61:	41 51                	push   %r9
  402a63:	49 89 c9             	mov    %rcx,%r9
  402a66:	49 89 d0             	mov    %rdx,%r8
  402a69:	48 89 f9             	mov    %rdi,%rcx
  402a6c:	48 89 f2             	mov    %rsi,%rdx
  402a6f:	be 9a 3c 00 00       	mov    $0x3c9a,%esi
  402a74:	bf 68 36 40 00       	mov    $0x403668,%edi
  402a79:	e8 99 f6 ff ff       	callq  402117 <submitr>
  402a7e:	48 83 c4 10          	add    $0x10,%rsp
  402a82:	eb 0e                	jmp    402a92 <driver_post+0x6a>
  402a84:	66 c7 03 4f 4b       	movw   $0x4b4f,(%rbx)
  402a89:	c6 43 02 00          	movb   $0x0,0x2(%rbx)
  402a8d:	b8 00 00 00 00       	mov    $0x0,%eax
  402a92:	5b                   	pop    %rbx
  402a93:	c3                   	retq   

0000000000402a94 <check>:
  402a94:	89 f8                	mov    %edi,%eax
  402a96:	c1 e8 1c             	shr    $0x1c,%eax
  402a99:	85 c0                	test   %eax,%eax
  402a9b:	74 1d                	je     402aba <check+0x26>
  402a9d:	b9 00 00 00 00       	mov    $0x0,%ecx
  402aa2:	eb 0b                	jmp    402aaf <check+0x1b>
  402aa4:	89 f8                	mov    %edi,%eax
  402aa6:	d3 e8                	shr    %cl,%eax
  402aa8:	3c 0a                	cmp    $0xa,%al
  402aaa:	74 14                	je     402ac0 <check+0x2c>
  402aac:	83 c1 08             	add    $0x8,%ecx
  402aaf:	83 f9 1f             	cmp    $0x1f,%ecx
  402ab2:	7e f0                	jle    402aa4 <check+0x10>
  402ab4:	b8 01 00 00 00       	mov    $0x1,%eax
  402ab9:	c3                   	retq   
  402aba:	b8 00 00 00 00       	mov    $0x0,%eax
  402abf:	c3                   	retq   
  402ac0:	b8 00 00 00 00       	mov    $0x0,%eax
  402ac5:	c3                   	retq   

0000000000402ac6 <gencookie>:
  402ac6:	53                   	push   %rbx
  402ac7:	83 c7 01             	add    $0x1,%edi
  402aca:	e8 d1 e0 ff ff       	callq  400ba0 <srandom@plt>
  402acf:	e8 ec e1 ff ff       	callq  400cc0 <random@plt>
  402ad4:	89 c3                	mov    %eax,%ebx
  402ad6:	89 c7                	mov    %eax,%edi
  402ad8:	e8 b7 ff ff ff       	callq  402a94 <check>
  402add:	85 c0                	test   %eax,%eax
  402adf:	74 ee                	je     402acf <gencookie+0x9>
  402ae1:	89 d8                	mov    %ebx,%eax
  402ae3:	5b                   	pop    %rbx
  402ae4:	c3                   	retq   
  402ae5:	66 2e 0f 1f 84 00 00 	nopw   %cs:0x0(%rax,%rax,1)
  402aec:	00 00 00 
  402aef:	90                   	nop

0000000000402af0 <__libc_csu_fini>:
  402af0:	f3 c3                	repz retq 
  402af2:	66 66 66 66 66 2e 0f 	data32 data32 data32 data32 nopw %cs:0x0(%rax,%rax,1)
  402af9:	1f 84 00 00 00 00 00 

0000000000402b00 <__libc_csu_init>:
  402b00:	48 89 6c 24 d8       	mov    %rbp,-0x28(%rsp)
  402b05:	4c 89 64 24 e0       	mov    %r12,-0x20(%rsp)
  402b0a:	48 8d 2d cf 18 20 00 	lea    0x2018cf(%rip),%rbp        # 6043e0 <__init_array_end>
  402b11:	4c 8d 25 c0 18 20 00 	lea    0x2018c0(%rip),%r12        # 6043d8 <__frame_dummy_init_array_entry>
  402b18:	4c 89 6c 24 e8       	mov    %r13,-0x18(%rsp)
  402b1d:	4c 89 74 24 f0       	mov    %r14,-0x10(%rsp)
  402b22:	4c 89 7c 24 f8       	mov    %r15,-0x8(%rsp)
  402b27:	48 89 5c 24 d0       	mov    %rbx,-0x30(%rsp)
  402b2c:	48 83 ec 38          	sub    $0x38,%rsp
  402b30:	4c 29 e5             	sub    %r12,%rbp
  402b33:	41 89 fd             	mov    %edi,%r13d
  402b36:	49 89 f6             	mov    %rsi,%r14
  402b39:	48 c1 fd 03          	sar    $0x3,%rbp
  402b3d:	49 89 d7             	mov    %rdx,%r15
  402b40:	e8 13 e0 ff ff       	callq  400b58 <_init>
  402b45:	48 85 ed             	test   %rbp,%rbp
  402b48:	74 1c                	je     402b66 <__libc_csu_init+0x66>
  402b4a:	31 db                	xor    %ebx,%ebx
  402b4c:	0f 1f 40 00          	nopl   0x0(%rax)
  402b50:	4c 89 fa             	mov    %r15,%rdx
  402b53:	4c 89 f6             	mov    %r14,%rsi
  402b56:	44 89 ef             	mov    %r13d,%edi
  402b59:	41 ff 14 dc          	callq  *(%r12,%rbx,8)
  402b5d:	48 83 c3 01          	add    $0x1,%rbx
  402b61:	48 39 eb             	cmp    %rbp,%rbx
  402b64:	72 ea                	jb     402b50 <__libc_csu_init+0x50>
  402b66:	48 8b 5c 24 08       	mov    0x8(%rsp),%rbx
  402b6b:	48 8b 6c 24 10       	mov    0x10(%rsp),%rbp
  402b70:	4c 8b 64 24 18       	mov    0x18(%rsp),%r12
  402b75:	4c 8b 6c 24 20       	mov    0x20(%rsp),%r13
  402b7a:	4c 8b 74 24 28       	mov    0x28(%rsp),%r14
  402b7f:	4c 8b 7c 24 30       	mov    0x30(%rsp),%r15
  402b84:	48 83 c4 38          	add    $0x38,%rsp
  402b88:	c3                   	retq   
  402b89:	0f 1f 00             	nopl   (%rax)

Disassembly of section .fini:

0000000000402b8c <_fini>:
  402b8c:	48 83 ec 08          	sub    $0x8,%rsp
  402b90:	48 83 c4 08          	add    $0x8,%rsp
  402b94:	c3                   	retq   
