
rtarget：     文件格式 elf64-x86-64


Disassembly of section .init:

0000000000400b58 <_init>:
  400b58:	48 83 ec 08          	sub    $0x8,%rsp
  400b5c:	e8 5b 02 00 00       	callq  400dbc <call_gmon_start>
  400b61:	48 83 c4 08          	add    $0x8,%rsp
  400b65:	c3                   	retq   

Disassembly of section .plt:

0000000000400b70 <strcasecmp@plt-0x10>:
  400b70:	ff 35 fa 40 20 00    	pushq  0x2040fa(%rip)        # 604c70 <_GLOBAL_OFFSET_TABLE_+0x8>
  400b76:	ff 25 fc 40 20 00    	jmpq   *0x2040fc(%rip)        # 604c78 <_GLOBAL_OFFSET_TABLE_+0x10>
  400b7c:	0f 1f 40 00          	nopl   0x0(%rax)

0000000000400b80 <strcasecmp@plt>:
  400b80:	ff 25 fa 40 20 00    	jmpq   *0x2040fa(%rip)        # 604c80 <_GLOBAL_OFFSET_TABLE_+0x18>
  400b86:	68 00 00 00 00       	pushq  $0x0
  400b8b:	e9 e0 ff ff ff       	jmpq   400b70 <_init+0x18>

0000000000400b90 <__errno_location@plt>:
  400b90:	ff 25 f2 40 20 00    	jmpq   *0x2040f2(%rip)        # 604c88 <_GLOBAL_OFFSET_TABLE_+0x20>
  400b96:	68 01 00 00 00       	pushq  $0x1
  400b9b:	e9 d0 ff ff ff       	jmpq   400b70 <_init+0x18>

0000000000400ba0 <srandom@plt>:
  400ba0:	ff 25 ea 40 20 00    	jmpq   *0x2040ea(%rip)        # 604c90 <_GLOBAL_OFFSET_TABLE_+0x28>
  400ba6:	68 02 00 00 00       	pushq  $0x2
  400bab:	e9 c0 ff ff ff       	jmpq   400b70 <_init+0x18>

0000000000400bb0 <strncmp@plt>:
  400bb0:	ff 25 e2 40 20 00    	jmpq   *0x2040e2(%rip)        # 604c98 <_GLOBAL_OFFSET_TABLE_+0x30>
  400bb6:	68 03 00 00 00       	pushq  $0x3
  400bbb:	e9 b0 ff ff ff       	jmpq   400b70 <_init+0x18>

0000000000400bc0 <strcpy@plt>:
  400bc0:	ff 25 da 40 20 00    	jmpq   *0x2040da(%rip)        # 604ca0 <_GLOBAL_OFFSET_TABLE_+0x38>
  400bc6:	68 04 00 00 00       	pushq  $0x4
  400bcb:	e9 a0 ff ff ff       	jmpq   400b70 <_init+0x18>

0000000000400bd0 <puts@plt>:
  400bd0:	ff 25 d2 40 20 00    	jmpq   *0x2040d2(%rip)        # 604ca8 <_GLOBAL_OFFSET_TABLE_+0x40>
  400bd6:	68 05 00 00 00       	pushq  $0x5
  400bdb:	e9 90 ff ff ff       	jmpq   400b70 <_init+0x18>

0000000000400be0 <write@plt>:
  400be0:	ff 25 ca 40 20 00    	jmpq   *0x2040ca(%rip)        # 604cb0 <_GLOBAL_OFFSET_TABLE_+0x48>
  400be6:	68 06 00 00 00       	pushq  $0x6
  400beb:	e9 80 ff ff ff       	jmpq   400b70 <_init+0x18>

0000000000400bf0 <mmap@plt>:
  400bf0:	ff 25 c2 40 20 00    	jmpq   *0x2040c2(%rip)        # 604cb8 <_GLOBAL_OFFSET_TABLE_+0x50>
  400bf6:	68 07 00 00 00       	pushq  $0x7
  400bfb:	e9 70 ff ff ff       	jmpq   400b70 <_init+0x18>

0000000000400c00 <printf@plt>:
  400c00:	ff 25 ba 40 20 00    	jmpq   *0x2040ba(%rip)        # 604cc0 <_GLOBAL_OFFSET_TABLE_+0x58>
  400c06:	68 08 00 00 00       	pushq  $0x8
  400c0b:	e9 60 ff ff ff       	jmpq   400b70 <_init+0x18>

0000000000400c10 <memset@plt>:
  400c10:	ff 25 b2 40 20 00    	jmpq   *0x2040b2(%rip)        # 604cc8 <_GLOBAL_OFFSET_TABLE_+0x60>
  400c16:	68 09 00 00 00       	pushq  $0x9
  400c1b:	e9 50 ff ff ff       	jmpq   400b70 <_init+0x18>

0000000000400c20 <alarm@plt>:
  400c20:	ff 25 aa 40 20 00    	jmpq   *0x2040aa(%rip)        # 604cd0 <_GLOBAL_OFFSET_TABLE_+0x68>
  400c26:	68 0a 00 00 00       	pushq  $0xa
  400c2b:	e9 40 ff ff ff       	jmpq   400b70 <_init+0x18>

0000000000400c30 <close@plt>:
  400c30:	ff 25 a2 40 20 00    	jmpq   *0x2040a2(%rip)        # 604cd8 <_GLOBAL_OFFSET_TABLE_+0x70>
  400c36:	68 0b 00 00 00       	pushq  $0xb
  400c3b:	e9 30 ff ff ff       	jmpq   400b70 <_init+0x18>

0000000000400c40 <read@plt>:
  400c40:	ff 25 9a 40 20 00    	jmpq   *0x20409a(%rip)        # 604ce0 <_GLOBAL_OFFSET_TABLE_+0x78>
  400c46:	68 0c 00 00 00       	pushq  $0xc
  400c4b:	e9 20 ff ff ff       	jmpq   400b70 <_init+0x18>

0000000000400c50 <__libc_start_main@plt>:
  400c50:	ff 25 92 40 20 00    	jmpq   *0x204092(%rip)        # 604ce8 <_GLOBAL_OFFSET_TABLE_+0x80>
  400c56:	68 0d 00 00 00       	pushq  $0xd
  400c5b:	e9 10 ff ff ff       	jmpq   400b70 <_init+0x18>

0000000000400c60 <memcpy@plt>:
  400c60:	ff 25 8a 40 20 00    	jmpq   *0x20408a(%rip)        # 604cf0 <_GLOBAL_OFFSET_TABLE_+0x88>
  400c66:	68 0e 00 00 00       	pushq  $0xe
  400c6b:	e9 00 ff ff ff       	jmpq   400b70 <_init+0x18>

0000000000400c70 <signal@plt>:
  400c70:	ff 25 82 40 20 00    	jmpq   *0x204082(%rip)        # 604cf8 <_GLOBAL_OFFSET_TABLE_+0x90>
  400c76:	68 0f 00 00 00       	pushq  $0xf
  400c7b:	e9 f0 fe ff ff       	jmpq   400b70 <_init+0x18>

0000000000400c80 <gethostbyname@plt>:
  400c80:	ff 25 7a 40 20 00    	jmpq   *0x20407a(%rip)        # 604d00 <_GLOBAL_OFFSET_TABLE_+0x98>
  400c86:	68 10 00 00 00       	pushq  $0x10
  400c8b:	e9 e0 fe ff ff       	jmpq   400b70 <_init+0x18>

0000000000400c90 <fprintf@plt>:
  400c90:	ff 25 72 40 20 00    	jmpq   *0x204072(%rip)        # 604d08 <_GLOBAL_OFFSET_TABLE_+0xa0>
  400c96:	68 11 00 00 00       	pushq  $0x11
  400c9b:	e9 d0 fe ff ff       	jmpq   400b70 <_init+0x18>

0000000000400ca0 <strtol@plt>:
  400ca0:	ff 25 6a 40 20 00    	jmpq   *0x20406a(%rip)        # 604d10 <_GLOBAL_OFFSET_TABLE_+0xa8>
  400ca6:	68 12 00 00 00       	pushq  $0x12
  400cab:	e9 c0 fe ff ff       	jmpq   400b70 <_init+0x18>

0000000000400cb0 <time@plt>:
  400cb0:	ff 25 62 40 20 00    	jmpq   *0x204062(%rip)        # 604d18 <_GLOBAL_OFFSET_TABLE_+0xb0>
  400cb6:	68 13 00 00 00       	pushq  $0x13
  400cbb:	e9 b0 fe ff ff       	jmpq   400b70 <_init+0x18>

0000000000400cc0 <random@plt>:
  400cc0:	ff 25 5a 40 20 00    	jmpq   *0x20405a(%rip)        # 604d20 <_GLOBAL_OFFSET_TABLE_+0xb8>
  400cc6:	68 14 00 00 00       	pushq  $0x14
  400ccb:	e9 a0 fe ff ff       	jmpq   400b70 <_init+0x18>

0000000000400cd0 <_IO_getc@plt>:
  400cd0:	ff 25 52 40 20 00    	jmpq   *0x204052(%rip)        # 604d28 <_GLOBAL_OFFSET_TABLE_+0xc0>
  400cd6:	68 15 00 00 00       	pushq  $0x15
  400cdb:	e9 90 fe ff ff       	jmpq   400b70 <_init+0x18>

0000000000400ce0 <__isoc99_sscanf@plt>:
  400ce0:	ff 25 4a 40 20 00    	jmpq   *0x20404a(%rip)        # 604d30 <_GLOBAL_OFFSET_TABLE_+0xc8>
  400ce6:	68 16 00 00 00       	pushq  $0x16
  400ceb:	e9 80 fe ff ff       	jmpq   400b70 <_init+0x18>

0000000000400cf0 <munmap@plt>:
  400cf0:	ff 25 42 40 20 00    	jmpq   *0x204042(%rip)        # 604d38 <_GLOBAL_OFFSET_TABLE_+0xd0>
  400cf6:	68 17 00 00 00       	pushq  $0x17
  400cfb:	e9 70 fe ff ff       	jmpq   400b70 <_init+0x18>

0000000000400d00 <bcopy@plt>:
  400d00:	ff 25 3a 40 20 00    	jmpq   *0x20403a(%rip)        # 604d40 <_GLOBAL_OFFSET_TABLE_+0xd8>
  400d06:	68 18 00 00 00       	pushq  $0x18
  400d0b:	e9 60 fe ff ff       	jmpq   400b70 <_init+0x18>

0000000000400d10 <fopen@plt>:
  400d10:	ff 25 32 40 20 00    	jmpq   *0x204032(%rip)        # 604d48 <_GLOBAL_OFFSET_TABLE_+0xe0>
  400d16:	68 19 00 00 00       	pushq  $0x19
  400d1b:	e9 50 fe ff ff       	jmpq   400b70 <_init+0x18>

0000000000400d20 <getopt@plt>:
  400d20:	ff 25 2a 40 20 00    	jmpq   *0x20402a(%rip)        # 604d50 <_GLOBAL_OFFSET_TABLE_+0xe8>
  400d26:	68 1a 00 00 00       	pushq  $0x1a
  400d2b:	e9 40 fe ff ff       	jmpq   400b70 <_init+0x18>

0000000000400d30 <strtoul@plt>:
  400d30:	ff 25 22 40 20 00    	jmpq   *0x204022(%rip)        # 604d58 <_GLOBAL_OFFSET_TABLE_+0xf0>
  400d36:	68 1b 00 00 00       	pushq  $0x1b
  400d3b:	e9 30 fe ff ff       	jmpq   400b70 <_init+0x18>

0000000000400d40 <gethostname@plt>:
  400d40:	ff 25 1a 40 20 00    	jmpq   *0x20401a(%rip)        # 604d60 <_GLOBAL_OFFSET_TABLE_+0xf8>
  400d46:	68 1c 00 00 00       	pushq  $0x1c
  400d4b:	e9 20 fe ff ff       	jmpq   400b70 <_init+0x18>

0000000000400d50 <sprintf@plt>:
  400d50:	ff 25 12 40 20 00    	jmpq   *0x204012(%rip)        # 604d68 <_GLOBAL_OFFSET_TABLE_+0x100>
  400d56:	68 1d 00 00 00       	pushq  $0x1d
  400d5b:	e9 10 fe ff ff       	jmpq   400b70 <_init+0x18>

0000000000400d60 <exit@plt>:
  400d60:	ff 25 0a 40 20 00    	jmpq   *0x20400a(%rip)        # 604d70 <_GLOBAL_OFFSET_TABLE_+0x108>
  400d66:	68 1e 00 00 00       	pushq  $0x1e
  400d6b:	e9 00 fe ff ff       	jmpq   400b70 <_init+0x18>

0000000000400d70 <connect@plt>:
  400d70:	ff 25 02 40 20 00    	jmpq   *0x204002(%rip)        # 604d78 <_GLOBAL_OFFSET_TABLE_+0x110>
  400d76:	68 1f 00 00 00       	pushq  $0x1f
  400d7b:	e9 f0 fd ff ff       	jmpq   400b70 <_init+0x18>

0000000000400d80 <socket@plt>:
  400d80:	ff 25 fa 3f 20 00    	jmpq   *0x203ffa(%rip)        # 604d80 <_GLOBAL_OFFSET_TABLE_+0x118>
  400d86:	68 20 00 00 00       	pushq  $0x20
  400d8b:	e9 e0 fd ff ff       	jmpq   400b70 <_init+0x18>

Disassembly of section .text:

0000000000400d90 <_start>:
  400d90:	31 ed                	xor    %ebp,%ebp
  400d92:	49 89 d1             	mov    %rdx,%r9
  400d95:	5e                   	pop    %rsi
  400d96:	48 89 e2             	mov    %rsp,%rdx
  400d99:	48 83 e4 f0          	and    $0xfffffffffffffff0,%rsp
  400d9d:	50                   	push   %rax
  400d9e:	54                   	push   %rsp
  400d9f:	49 c7 c0 10 2c 40 00 	mov    $0x402c10,%r8
  400da6:	48 c7 c1 20 2c 40 00 	mov    $0x402c20,%rcx
  400dad:	48 c7 c7 79 10 40 00 	mov    $0x401079,%rdi
  400db4:	e8 97 fe ff ff       	callq  400c50 <__libc_start_main@plt>
  400db9:	f4                   	hlt    
  400dba:	90                   	nop
  400dbb:	90                   	nop

0000000000400dbc <call_gmon_start>:
  400dbc:	48 83 ec 08          	sub    $0x8,%rsp
  400dc0:	48 8b 05 99 3e 20 00 	mov    0x203e99(%rip),%rax        # 604c60 <_DYNAMIC+0x1d0>
  400dc7:	48 85 c0             	test   %rax,%rax
  400dca:	74 02                	je     400dce <call_gmon_start+0x12>
  400dcc:	ff d0                	callq  *%rax
  400dce:	48 83 c4 08          	add    $0x8,%rsp
  400dd2:	c3                   	retq   
  400dd3:	66 2e 0f 1f 84 00 00 	nopw   %cs:0x0(%rax,%rax,1)
  400dda:	00 00 00 
  400ddd:	0f 1f 00             	nopl   (%rax)

0000000000400de0 <deregister_tm_clones>:
  400de0:	b8 77 51 60 00       	mov    $0x605177,%eax
  400de5:	55                   	push   %rbp
  400de6:	48 2d 70 51 60 00    	sub    $0x605170,%rax
  400dec:	48 83 f8 0e          	cmp    $0xe,%rax
  400df0:	48 89 e5             	mov    %rsp,%rbp
  400df3:	76 1b                	jbe    400e10 <deregister_tm_clones+0x30>
  400df5:	b8 00 00 00 00       	mov    $0x0,%eax
  400dfa:	48 85 c0             	test   %rax,%rax
  400dfd:	74 11                	je     400e10 <deregister_tm_clones+0x30>
  400dff:	5d                   	pop    %rbp
  400e00:	bf 70 51 60 00       	mov    $0x605170,%edi
  400e05:	ff e0                	jmpq   *%rax
  400e07:	66 0f 1f 84 00 00 00 	nopw   0x0(%rax,%rax,1)
  400e0e:	00 00 
  400e10:	5d                   	pop    %rbp
  400e11:	c3                   	retq   
  400e12:	66 66 66 66 66 2e 0f 	data32 data32 data32 data32 nopw %cs:0x0(%rax,%rax,1)
  400e19:	1f 84 00 00 00 00 00 

0000000000400e20 <register_tm_clones>:
  400e20:	be 70 51 60 00       	mov    $0x605170,%esi
  400e25:	55                   	push   %rbp
  400e26:	48 81 ee 70 51 60 00 	sub    $0x605170,%rsi
  400e2d:	48 c1 fe 03          	sar    $0x3,%rsi
  400e31:	48 89 e5             	mov    %rsp,%rbp
  400e34:	48 89 f0             	mov    %rsi,%rax
  400e37:	48 c1 e8 3f          	shr    $0x3f,%rax
  400e3b:	48 01 c6             	add    %rax,%rsi
  400e3e:	48 d1 fe             	sar    %rsi
  400e41:	74 15                	je     400e58 <register_tm_clones+0x38>
  400e43:	b8 00 00 00 00       	mov    $0x0,%eax
  400e48:	48 85 c0             	test   %rax,%rax
  400e4b:	74 0b                	je     400e58 <register_tm_clones+0x38>
  400e4d:	5d                   	pop    %rbp
  400e4e:	bf 70 51 60 00       	mov    $0x605170,%edi
  400e53:	ff e0                	jmpq   *%rax
  400e55:	0f 1f 00             	nopl   (%rax)
  400e58:	5d                   	pop    %rbp
  400e59:	c3                   	retq   
  400e5a:	66 0f 1f 44 00 00    	nopw   0x0(%rax,%rax,1)

0000000000400e60 <__do_global_dtors_aux>:
  400e60:	80 3d 49 43 20 00 00 	cmpb   $0x0,0x204349(%rip)        # 6051b0 <completed.6568>
  400e67:	75 11                	jne    400e7a <__do_global_dtors_aux+0x1a>
  400e69:	55                   	push   %rbp
  400e6a:	48 89 e5             	mov    %rsp,%rbp
  400e6d:	e8 6e ff ff ff       	callq  400de0 <deregister_tm_clones>
  400e72:	5d                   	pop    %rbp
  400e73:	c6 05 36 43 20 00 01 	movb   $0x1,0x204336(%rip)        # 6051b0 <completed.6568>
  400e7a:	f3 c3                	repz retq 
  400e7c:	0f 1f 40 00          	nopl   0x0(%rax)

0000000000400e80 <frame_dummy>:
  400e80:	bf 88 4a 60 00       	mov    $0x604a88,%edi
  400e85:	48 83 3f 00          	cmpq   $0x0,(%rdi)
  400e89:	75 05                	jne    400e90 <frame_dummy+0x10>
  400e8b:	eb 93                	jmp    400e20 <register_tm_clones>
  400e8d:	0f 1f 00             	nopl   (%rax)
  400e90:	b8 00 00 00 00       	mov    $0x0,%eax
  400e95:	48 85 c0             	test   %rax,%rax
  400e98:	74 f1                	je     400e8b <frame_dummy+0xb>
  400e9a:	55                   	push   %rbp
  400e9b:	48 89 e5             	mov    %rsp,%rbp
  400e9e:	ff d0                	callq  *%rax
  400ea0:	5d                   	pop    %rbp
  400ea1:	e9 7a ff ff ff       	jmpq   400e20 <register_tm_clones>

0000000000400ea6 <usage>:
  400ea6:	48 83 ec 08          	sub    $0x8,%rsp
  400eaa:	48 89 fe             	mov    %rdi,%rsi
  400ead:	83 3d 34 43 20 00 00 	cmpl   $0x0,0x204334(%rip)        # 6051e8 <is_checker>
  400eb4:	74 39                	je     400eef <usage+0x49>
  400eb6:	bf d0 2c 40 00       	mov    $0x402cd0,%edi
  400ebb:	b8 00 00 00 00       	mov    $0x0,%eax
  400ec0:	e8 3b fd ff ff       	callq  400c00 <printf@plt>
  400ec5:	bf 08 2d 40 00       	mov    $0x402d08,%edi
  400eca:	e8 01 fd ff ff       	callq  400bd0 <puts@plt>
  400ecf:	bf 80 2e 40 00       	mov    $0x402e80,%edi
  400ed4:	e8 f7 fc ff ff       	callq  400bd0 <puts@plt>
  400ed9:	bf 30 2d 40 00       	mov    $0x402d30,%edi
  400ede:	e8 ed fc ff ff       	callq  400bd0 <puts@plt>
  400ee3:	bf 9a 2e 40 00       	mov    $0x402e9a,%edi
  400ee8:	e8 e3 fc ff ff       	callq  400bd0 <puts@plt>
  400eed:	eb 2d                	jmp    400f1c <usage+0x76>
  400eef:	bf b6 2e 40 00       	mov    $0x402eb6,%edi
  400ef4:	b8 00 00 00 00       	mov    $0x0,%eax
  400ef9:	e8 02 fd ff ff       	callq  400c00 <printf@plt>
  400efe:	bf 58 2d 40 00       	mov    $0x402d58,%edi
  400f03:	e8 c8 fc ff ff       	callq  400bd0 <puts@plt>
  400f08:	bf 80 2d 40 00       	mov    $0x402d80,%edi
  400f0d:	e8 be fc ff ff       	callq  400bd0 <puts@plt>
  400f12:	bf d4 2e 40 00       	mov    $0x402ed4,%edi
  400f17:	e8 b4 fc ff ff       	callq  400bd0 <puts@plt>
  400f1c:	bf 00 00 00 00       	mov    $0x0,%edi
  400f21:	e8 3a fe ff ff       	callq  400d60 <exit@plt>

0000000000400f26 <initialize_target>:
  400f26:	55                   	push   %rbp
  400f27:	53                   	push   %rbx
  400f28:	48 81 ec 08 21 00 00 	sub    $0x2108,%rsp
  400f2f:	89 f5                	mov    %esi,%ebp
  400f31:	89 3d a1 42 20 00    	mov    %edi,0x2042a1(%rip)        # 6051d8 <check_level>
  400f37:	8b 3d cb 3e 20 00    	mov    0x203ecb(%rip),%edi        # 604e08 <target_id>
  400f3d:	e8 a5 1c 00 00       	callq  402be7 <gencookie>
  400f42:	89 05 9c 42 20 00    	mov    %eax,0x20429c(%rip)        # 6051e4 <cookie>
  400f48:	89 c7                	mov    %eax,%edi
  400f4a:	e8 98 1c 00 00       	callq  402be7 <gencookie>
  400f4f:	89 05 8b 42 20 00    	mov    %eax,0x20428b(%rip)        # 6051e0 <authkey>
  400f55:	8b 05 ad 3e 20 00    	mov    0x203ead(%rip),%eax        # 604e08 <target_id>
  400f5b:	8d 78 01             	lea    0x1(%rax),%edi
  400f5e:	e8 3d fc ff ff       	callq  400ba0 <srandom@plt>
  400f63:	e8 58 fd ff ff       	callq  400cc0 <random@plt>
  400f68:	89 c7                	mov    %eax,%edi
  400f6a:	e8 cd 02 00 00       	callq  40123c <scramble>
  400f6f:	89 c3                	mov    %eax,%ebx
  400f71:	85 ed                	test   %ebp,%ebp
  400f73:	74 1a                	je     400f8f <initialize_target+0x69>
  400f75:	bf 00 00 00 00       	mov    $0x0,%edi
  400f7a:	e8 31 fd ff ff       	callq  400cb0 <time@plt>
  400f7f:	89 c7                	mov    %eax,%edi
  400f81:	e8 1a fc ff ff       	callq  400ba0 <srandom@plt>
  400f86:	e8 35 fd ff ff       	callq  400cc0 <random@plt>
  400f8b:	89 c2                	mov    %eax,%edx
  400f8d:	eb 05                	jmp    400f94 <initialize_target+0x6e>
  400f8f:	ba 00 00 00 00       	mov    $0x0,%edx
  400f94:	8d 04 13             	lea    (%rbx,%rdx,1),%eax
  400f97:	0f b7 c0             	movzwl %ax,%eax
  400f9a:	8d 04 c5 00 01 00 00 	lea    0x100(,%rax,8),%eax
  400fa1:	89 c0                	mov    %eax,%eax
  400fa3:	48 89 05 b6 41 20 00 	mov    %rax,0x2041b6(%rip)        # 605160 <buf_offset>
  400faa:	c6 05 57 4e 20 00 72 	movb   $0x72,0x204e57(%rip)        # 605e08 <target_prefix>
  400fb1:	83 3d b0 41 20 00 00 	cmpl   $0x0,0x2041b0(%rip)        # 605168 <notify>
  400fb8:	0f 84 b1 00 00 00    	je     40106f <initialize_target+0x149>
  400fbe:	83 3d 23 42 20 00 00 	cmpl   $0x0,0x204223(%rip)        # 6051e8 <is_checker>
  400fc5:	0f 85 a4 00 00 00    	jne    40106f <initialize_target+0x149>
  400fcb:	be 00 01 00 00       	mov    $0x100,%esi
  400fd0:	48 89 e7             	mov    %rsp,%rdi
  400fd3:	e8 68 fd ff ff       	callq  400d40 <gethostname@plt>
  400fd8:	85 c0                	test   %eax,%eax
  400fda:	74 25                	je     401001 <initialize_target+0xdb>
  400fdc:	bf b0 2d 40 00       	mov    $0x402db0,%edi
  400fe1:	e8 ea fb ff ff       	callq  400bd0 <puts@plt>
  400fe6:	bf 08 00 00 00       	mov    $0x8,%edi
  400feb:	e8 70 fd ff ff       	callq  400d60 <exit@plt>
  400ff0:	48 89 e6             	mov    %rsp,%rsi
  400ff3:	e8 88 fb ff ff       	callq  400b80 <strcasecmp@plt>
  400ff8:	85 c0                	test   %eax,%eax
  400ffa:	74 21                	je     40101d <initialize_target+0xf7>
  400ffc:	83 c3 01             	add    $0x1,%ebx
  400fff:	eb 05                	jmp    401006 <initialize_target+0xe0>
  401001:	bb 00 00 00 00       	mov    $0x0,%ebx
  401006:	48 63 c3             	movslq %ebx,%rax
  401009:	48 8b 3c c5 40 4e 60 	mov    0x604e40(,%rax,8),%rdi
  401010:	00 
  401011:	48 85 ff             	test   %rdi,%rdi
  401014:	75 da                	jne    400ff0 <initialize_target+0xca>
  401016:	b8 00 00 00 00       	mov    $0x0,%eax
  40101b:	eb 05                	jmp    401022 <initialize_target+0xfc>
  40101d:	b8 01 00 00 00       	mov    $0x1,%eax
  401022:	85 c0                	test   %eax,%eax
  401024:	75 17                	jne    40103d <initialize_target+0x117>
  401026:	48 89 e6             	mov    %rsp,%rsi
  401029:	bf e8 2d 40 00       	mov    $0x402de8,%edi
  40102e:	e8 cd fb ff ff       	callq  400c00 <printf@plt>
  401033:	bf 08 00 00 00       	mov    $0x8,%edi
  401038:	e8 23 fd ff ff       	callq  400d60 <exit@plt>
  40103d:	48 8d bc 24 00 01 00 	lea    0x100(%rsp),%rdi
  401044:	00 
  401045:	e8 36 19 00 00       	callq  402980 <init_driver>
  40104a:	85 c0                	test   %eax,%eax
  40104c:	79 21                	jns    40106f <initialize_target+0x149>
  40104e:	48 8d b4 24 00 01 00 	lea    0x100(%rsp),%rsi
  401055:	00 
  401056:	bf 28 2e 40 00       	mov    $0x402e28,%edi
  40105b:	b8 00 00 00 00       	mov    $0x0,%eax
  401060:	e8 9b fb ff ff       	callq  400c00 <printf@plt>
  401065:	bf 08 00 00 00       	mov    $0x8,%edi
  40106a:	e8 f1 fc ff ff       	callq  400d60 <exit@plt>
  40106f:	48 81 c4 08 21 00 00 	add    $0x2108,%rsp
  401076:	5b                   	pop    %rbx
  401077:	5d                   	pop    %rbp
  401078:	c3                   	retq   

0000000000401079 <main>:
  401079:	41 56                	push   %r14
  40107b:	41 55                	push   %r13
  40107d:	41 54                	push   %r12
  40107f:	55                   	push   %rbp
  401080:	53                   	push   %rbx
  401081:	41 89 fc             	mov    %edi,%r12d
  401084:	48 89 f3             	mov    %rsi,%rbx
  401087:	be a0 1d 40 00       	mov    $0x401da0,%esi
  40108c:	bf 0b 00 00 00       	mov    $0xb,%edi
  401091:	e8 da fb ff ff       	callq  400c70 <signal@plt>
  401096:	be 52 1d 40 00       	mov    $0x401d52,%esi
  40109b:	bf 07 00 00 00       	mov    $0x7,%edi
  4010a0:	e8 cb fb ff ff       	callq  400c70 <signal@plt>
  4010a5:	be ee 1d 40 00       	mov    $0x401dee,%esi
  4010aa:	bf 04 00 00 00       	mov    $0x4,%edi
  4010af:	e8 bc fb ff ff       	callq  400c70 <signal@plt>
  4010b4:	83 3d 2d 41 20 00 00 	cmpl   $0x0,0x20412d(%rip)        # 6051e8 <is_checker>
  4010bb:	74 20                	je     4010dd <main+0x64>
  4010bd:	be 3c 1e 40 00       	mov    $0x401e3c,%esi
  4010c2:	bf 0e 00 00 00       	mov    $0xe,%edi
  4010c7:	e8 a4 fb ff ff       	callq  400c70 <signal@plt>
  4010cc:	bf 05 00 00 00       	mov    $0x5,%edi
  4010d1:	e8 4a fb ff ff       	callq  400c20 <alarm@plt>
  4010d6:	bd f2 2e 40 00       	mov    $0x402ef2,%ebp
  4010db:	eb 05                	jmp    4010e2 <main+0x69>
  4010dd:	bd ed 2e 40 00       	mov    $0x402eed,%ebp
  4010e2:	48 8b 05 97 40 20 00 	mov    0x204097(%rip),%rax        # 605180 <stdin@@GLIBC_2.2.5>
  4010e9:	48 89 05 e0 40 20 00 	mov    %rax,0x2040e0(%rip)        # 6051d0 <infile>
  4010f0:	41 bd 00 00 00 00    	mov    $0x0,%r13d
  4010f6:	41 be 00 00 00 00    	mov    $0x0,%r14d
  4010fc:	e9 b9 00 00 00       	jmpq   4011ba <main+0x141>
  401101:	83 e8 61             	sub    $0x61,%eax
  401104:	3c 10                	cmp    $0x10,%al
  401106:	0f 87 93 00 00 00    	ja     40119f <main+0x126>
  40110c:	0f b6 c0             	movzbl %al,%eax
  40110f:	ff 24 c5 38 2f 40 00 	jmpq   *0x402f38(,%rax,8)
  401116:	48 8b 3b             	mov    (%rbx),%rdi
  401119:	e8 88 fd ff ff       	callq  400ea6 <usage>
  40111e:	be 2d 3b 40 00       	mov    $0x403b2d,%esi
  401123:	48 8b 3d 76 40 20 00 	mov    0x204076(%rip),%rdi        # 6051a0 <optarg@@GLIBC_2.2.5>
  40112a:	e8 e1 fb ff ff       	callq  400d10 <fopen@plt>
  40112f:	48 89 05 9a 40 20 00 	mov    %rax,0x20409a(%rip)        # 6051d0 <infile>
  401136:	48 85 c0             	test   %rax,%rax
  401139:	75 7f                	jne    4011ba <main+0x141>
  40113b:	48 8b 15 5e 40 20 00 	mov    0x20405e(%rip),%rdx        # 6051a0 <optarg@@GLIBC_2.2.5>
  401142:	be fa 2e 40 00       	mov    $0x402efa,%esi
  401147:	48 8b 3d 5a 40 20 00 	mov    0x20405a(%rip),%rdi        # 6051a8 <stderr@@GLIBC_2.2.5>
  40114e:	e8 3d fb ff ff       	callq  400c90 <fprintf@plt>
  401153:	b8 01 00 00 00       	mov    $0x1,%eax
  401158:	e9 d6 00 00 00       	jmpq   401233 <main+0x1ba>
  40115d:	ba 10 00 00 00       	mov    $0x10,%edx
  401162:	be 00 00 00 00       	mov    $0x0,%esi
  401167:	48 8b 3d 32 40 20 00 	mov    0x204032(%rip),%rdi        # 6051a0 <optarg@@GLIBC_2.2.5>
  40116e:	e8 bd fb ff ff       	callq  400d30 <strtoul@plt>
  401173:	41 89 c6             	mov    %eax,%r14d
  401176:	eb 42                	jmp    4011ba <main+0x141>
  401178:	ba 0a 00 00 00       	mov    $0xa,%edx
  40117d:	be 00 00 00 00       	mov    $0x0,%esi
  401182:	48 8b 3d 17 40 20 00 	mov    0x204017(%rip),%rdi        # 6051a0 <optarg@@GLIBC_2.2.5>
  401189:	e8 12 fb ff ff       	callq  400ca0 <strtol@plt>
  40118e:	41 89 c5             	mov    %eax,%r13d
  401191:	eb 27                	jmp    4011ba <main+0x141>
  401193:	c7 05 cb 3f 20 00 00 	movl   $0x0,0x203fcb(%rip)        # 605168 <notify>
  40119a:	00 00 00 
  40119d:	eb 1b                	jmp    4011ba <main+0x141>
  40119f:	40 0f be f6          	movsbl %sil,%esi
  4011a3:	bf 17 2f 40 00       	mov    $0x402f17,%edi
  4011a8:	b8 00 00 00 00       	mov    $0x0,%eax
  4011ad:	e8 4e fa ff ff       	callq  400c00 <printf@plt>
  4011b2:	48 8b 3b             	mov    (%rbx),%rdi
  4011b5:	e8 ec fc ff ff       	callq  400ea6 <usage>
  4011ba:	48 89 ea             	mov    %rbp,%rdx
  4011bd:	48 89 de             	mov    %rbx,%rsi
  4011c0:	44 89 e7             	mov    %r12d,%edi
  4011c3:	e8 58 fb ff ff       	callq  400d20 <getopt@plt>
  4011c8:	89 c6                	mov    %eax,%esi
  4011ca:	3c ff                	cmp    $0xff,%al
  4011cc:	0f 85 2f ff ff ff    	jne    401101 <main+0x88>
  4011d2:	be 01 00 00 00       	mov    $0x1,%esi
  4011d7:	44 89 ef             	mov    %r13d,%edi
  4011da:	e8 47 fd ff ff       	callq  400f26 <initialize_target>
  4011df:	83 3d 02 40 20 00 00 	cmpl   $0x0,0x204002(%rip)        # 6051e8 <is_checker>
  4011e6:	74 25                	je     40120d <main+0x194>
  4011e8:	44 3b 35 f1 3f 20 00 	cmp    0x203ff1(%rip),%r14d        # 6051e0 <authkey>
  4011ef:	74 1c                	je     40120d <main+0x194>
  4011f1:	44 89 f6             	mov    %r14d,%esi
  4011f4:	bf 50 2e 40 00       	mov    $0x402e50,%edi
  4011f9:	b8 00 00 00 00       	mov    $0x0,%eax
  4011fe:	e8 fd f9 ff ff       	callq  400c00 <printf@plt>
  401203:	b8 00 00 00 00       	mov    $0x0,%eax
  401208:	e8 54 08 00 00       	callq  401a61 <check_fail>
  40120d:	8b 35 d1 3f 20 00    	mov    0x203fd1(%rip),%esi        # 6051e4 <cookie>
  401213:	bf 2a 2f 40 00       	mov    $0x402f2a,%edi
  401218:	b8 00 00 00 00       	mov    $0x0,%eax
  40121d:	e8 de f9 ff ff       	callq  400c00 <printf@plt>
  401222:	48 8b 3d 37 3f 20 00 	mov    0x203f37(%rip),%rdi        # 605160 <buf_offset>
  401229:	e8 5c 0c 00 00       	callq  401e8a <launch>
  40122e:	b8 00 00 00 00       	mov    $0x0,%eax
  401233:	5b                   	pop    %rbx
  401234:	5d                   	pop    %rbp
  401235:	41 5c                	pop    %r12
  401237:	41 5d                	pop    %r13
  401239:	41 5e                	pop    %r14
  40123b:	c3                   	retq   

000000000040123c <scramble>:
  40123c:	b8 00 00 00 00       	mov    $0x0,%eax
  401241:	eb 11                	jmp    401254 <scramble+0x18>
  401243:	69 d0 98 45 00 00    	imul   $0x4598,%eax,%edx
  401249:	01 fa                	add    %edi,%edx
  40124b:	89 c1                	mov    %eax,%ecx
  40124d:	89 54 8c d0          	mov    %edx,-0x30(%rsp,%rcx,4)
  401251:	83 c0 01             	add    $0x1,%eax
  401254:	83 f8 09             	cmp    $0x9,%eax
  401257:	76 ea                	jbe    401243 <scramble+0x7>
  401259:	8b 44 24 f4          	mov    -0xc(%rsp),%eax
  40125d:	69 c0 22 1a 00 00    	imul   $0x1a22,%eax,%eax
  401263:	89 44 24 f4          	mov    %eax,-0xc(%rsp)
  401267:	8b 44 24 dc          	mov    -0x24(%rsp),%eax
  40126b:	69 c0 57 5a 00 00    	imul   $0x5a57,%eax,%eax
  401271:	89 44 24 dc          	mov    %eax,-0x24(%rsp)
  401275:	8b 44 24 d4          	mov    -0x2c(%rsp),%eax
  401279:	69 c0 de 08 00 00    	imul   $0x8de,%eax,%eax
  40127f:	89 44 24 d4          	mov    %eax,-0x2c(%rsp)
  401283:	8b 44 24 dc          	mov    -0x24(%rsp),%eax
  401287:	69 c0 b9 11 00 00    	imul   $0x11b9,%eax,%eax
  40128d:	89 44 24 dc          	mov    %eax,-0x24(%rsp)
  401291:	8b 44 24 d4          	mov    -0x2c(%rsp),%eax
  401295:	69 c0 f7 9c 00 00    	imul   $0x9cf7,%eax,%eax
  40129b:	89 44 24 d4          	mov    %eax,-0x2c(%rsp)
  40129f:	8b 44 24 ec          	mov    -0x14(%rsp),%eax
  4012a3:	69 c0 64 35 00 00    	imul   $0x3564,%eax,%eax
  4012a9:	89 44 24 ec          	mov    %eax,-0x14(%rsp)
  4012ad:	8b 44 24 e0          	mov    -0x20(%rsp),%eax
  4012b1:	69 c0 7f af 00 00    	imul   $0xaf7f,%eax,%eax
  4012b7:	89 44 24 e0          	mov    %eax,-0x20(%rsp)
  4012bb:	8b 44 24 f0          	mov    -0x10(%rsp),%eax
  4012bf:	69 c0 d4 f2 00 00    	imul   $0xf2d4,%eax,%eax
  4012c5:	89 44 24 f0          	mov    %eax,-0x10(%rsp)
  4012c9:	8b 44 24 ec          	mov    -0x14(%rsp),%eax
  4012cd:	69 c0 c1 5c 00 00    	imul   $0x5cc1,%eax,%eax
  4012d3:	89 44 24 ec          	mov    %eax,-0x14(%rsp)
  4012d7:	8b 44 24 f0          	mov    -0x10(%rsp),%eax
  4012db:	69 c0 51 0e 00 00    	imul   $0xe51,%eax,%eax
  4012e1:	89 44 24 f0          	mov    %eax,-0x10(%rsp)
  4012e5:	8b 44 24 d8          	mov    -0x28(%rsp),%eax
  4012e9:	69 c0 69 a4 00 00    	imul   $0xa469,%eax,%eax
  4012ef:	89 44 24 d8          	mov    %eax,-0x28(%rsp)
  4012f3:	8b 44 24 ec          	mov    -0x14(%rsp),%eax
  4012f7:	69 c0 d4 28 00 00    	imul   $0x28d4,%eax,%eax
  4012fd:	89 44 24 ec          	mov    %eax,-0x14(%rsp)
  401301:	8b 44 24 ec          	mov    -0x14(%rsp),%eax
  401305:	69 c0 36 28 00 00    	imul   $0x2836,%eax,%eax
  40130b:	89 44 24 ec          	mov    %eax,-0x14(%rsp)
  40130f:	8b 44 24 dc          	mov    -0x24(%rsp),%eax
  401313:	69 c0 57 9d 00 00    	imul   $0x9d57,%eax,%eax
  401319:	89 44 24 dc          	mov    %eax,-0x24(%rsp)
  40131d:	8b 44 24 d8          	mov    -0x28(%rsp),%eax
  401321:	69 c0 91 13 00 00    	imul   $0x1391,%eax,%eax
  401327:	89 44 24 d8          	mov    %eax,-0x28(%rsp)
  40132b:	8b 44 24 ec          	mov    -0x14(%rsp),%eax
  40132f:	69 c0 6c a4 00 00    	imul   $0xa46c,%eax,%eax
  401335:	89 44 24 ec          	mov    %eax,-0x14(%rsp)
  401339:	8b 44 24 dc          	mov    -0x24(%rsp),%eax
  40133d:	69 c0 4d fb 00 00    	imul   $0xfb4d,%eax,%eax
  401343:	89 44 24 dc          	mov    %eax,-0x24(%rsp)
  401347:	8b 44 24 e4          	mov    -0x1c(%rsp),%eax
  40134b:	69 c0 81 86 00 00    	imul   $0x8681,%eax,%eax
  401351:	89 44 24 e4          	mov    %eax,-0x1c(%rsp)
  401355:	8b 44 24 d0          	mov    -0x30(%rsp),%eax
  401359:	69 c0 99 c8 00 00    	imul   $0xc899,%eax,%eax
  40135f:	89 44 24 d0          	mov    %eax,-0x30(%rsp)
  401363:	8b 44 24 e8          	mov    -0x18(%rsp),%eax
  401367:	69 c0 ac 9e 00 00    	imul   $0x9eac,%eax,%eax
  40136d:	89 44 24 e8          	mov    %eax,-0x18(%rsp)
  401371:	8b 44 24 ec          	mov    -0x14(%rsp),%eax
  401375:	69 c0 af 84 00 00    	imul   $0x84af,%eax,%eax
  40137b:	89 44 24 ec          	mov    %eax,-0x14(%rsp)
  40137f:	8b 44 24 d0          	mov    -0x30(%rsp),%eax
  401383:	69 c0 97 9e 00 00    	imul   $0x9e97,%eax,%eax
  401389:	89 44 24 d0          	mov    %eax,-0x30(%rsp)
  40138d:	8b 44 24 e8          	mov    -0x18(%rsp),%eax
  401391:	69 c0 07 8d 00 00    	imul   $0x8d07,%eax,%eax
  401397:	89 44 24 e8          	mov    %eax,-0x18(%rsp)
  40139b:	8b 44 24 f0          	mov    -0x10(%rsp),%eax
  40139f:	69 c0 c5 c1 00 00    	imul   $0xc1c5,%eax,%eax
  4013a5:	89 44 24 f0          	mov    %eax,-0x10(%rsp)
  4013a9:	8b 44 24 e8          	mov    -0x18(%rsp),%eax
  4013ad:	69 c0 81 21 00 00    	imul   $0x2181,%eax,%eax
  4013b3:	89 44 24 e8          	mov    %eax,-0x18(%rsp)
  4013b7:	8b 44 24 d8          	mov    -0x28(%rsp),%eax
  4013bb:	69 c0 f7 d3 00 00    	imul   $0xd3f7,%eax,%eax
  4013c1:	89 44 24 d8          	mov    %eax,-0x28(%rsp)
  4013c5:	8b 44 24 f4          	mov    -0xc(%rsp),%eax
  4013c9:	69 c0 d4 df 00 00    	imul   $0xdfd4,%eax,%eax
  4013cf:	89 44 24 f4          	mov    %eax,-0xc(%rsp)
  4013d3:	8b 44 24 e0          	mov    -0x20(%rsp),%eax
  4013d7:	69 c0 12 aa 00 00    	imul   $0xaa12,%eax,%eax
  4013dd:	89 44 24 e0          	mov    %eax,-0x20(%rsp)
  4013e1:	8b 44 24 ec          	mov    -0x14(%rsp),%eax
  4013e5:	69 c0 15 e9 00 00    	imul   $0xe915,%eax,%eax
  4013eb:	89 44 24 ec          	mov    %eax,-0x14(%rsp)
  4013ef:	8b 44 24 e0          	mov    -0x20(%rsp),%eax
  4013f3:	69 c0 dd 66 00 00    	imul   $0x66dd,%eax,%eax
  4013f9:	89 44 24 e0          	mov    %eax,-0x20(%rsp)
  4013fd:	8b 44 24 d4          	mov    -0x2c(%rsp),%eax
  401401:	69 c0 39 28 00 00    	imul   $0x2839,%eax,%eax
  401407:	89 44 24 d4          	mov    %eax,-0x2c(%rsp)
  40140b:	8b 44 24 dc          	mov    -0x24(%rsp),%eax
  40140f:	69 c0 59 2a 00 00    	imul   $0x2a59,%eax,%eax
  401415:	89 44 24 dc          	mov    %eax,-0x24(%rsp)
  401419:	8b 44 24 e8          	mov    -0x18(%rsp),%eax
  40141d:	69 c0 0d 0a 00 00    	imul   $0xa0d,%eax,%eax
  401423:	89 44 24 e8          	mov    %eax,-0x18(%rsp)
  401427:	8b 44 24 e0          	mov    -0x20(%rsp),%eax
  40142b:	69 c0 b2 27 00 00    	imul   $0x27b2,%eax,%eax
  401431:	89 44 24 e0          	mov    %eax,-0x20(%rsp)
  401435:	8b 44 24 f4          	mov    -0xc(%rsp),%eax
  401439:	69 c0 15 49 00 00    	imul   $0x4915,%eax,%eax
  40143f:	89 44 24 f4          	mov    %eax,-0xc(%rsp)
  401443:	8b 44 24 d8          	mov    -0x28(%rsp),%eax
  401447:	69 c0 36 38 00 00    	imul   $0x3836,%eax,%eax
  40144d:	89 44 24 d8          	mov    %eax,-0x28(%rsp)
  401451:	8b 44 24 e8          	mov    -0x18(%rsp),%eax
  401455:	69 c0 70 9a 00 00    	imul   $0x9a70,%eax,%eax
  40145b:	89 44 24 e8          	mov    %eax,-0x18(%rsp)
  40145f:	8b 44 24 d4          	mov    -0x2c(%rsp),%eax
  401463:	69 c0 f3 01 00 00    	imul   $0x1f3,%eax,%eax
  401469:	89 44 24 d4          	mov    %eax,-0x2c(%rsp)
  40146d:	8b 44 24 e0          	mov    -0x20(%rsp),%eax
  401471:	69 c0 3a 68 00 00    	imul   $0x683a,%eax,%eax
  401477:	89 44 24 e0          	mov    %eax,-0x20(%rsp)
  40147b:	8b 44 24 ec          	mov    -0x14(%rsp),%eax
  40147f:	69 c0 3f 11 00 00    	imul   $0x113f,%eax,%eax
  401485:	89 44 24 ec          	mov    %eax,-0x14(%rsp)
  401489:	8b 44 24 d0          	mov    -0x30(%rsp),%eax
  40148d:	69 c0 ce 93 00 00    	imul   $0x93ce,%eax,%eax
  401493:	89 44 24 d0          	mov    %eax,-0x30(%rsp)
  401497:	8b 44 24 d0          	mov    -0x30(%rsp),%eax
  40149b:	69 c0 a6 4f 00 00    	imul   $0x4fa6,%eax,%eax
  4014a1:	89 44 24 d0          	mov    %eax,-0x30(%rsp)
  4014a5:	8b 44 24 e0          	mov    -0x20(%rsp),%eax
  4014a9:	69 c0 02 e2 00 00    	imul   $0xe202,%eax,%eax
  4014af:	89 44 24 e0          	mov    %eax,-0x20(%rsp)
  4014b3:	8b 44 24 d4          	mov    -0x2c(%rsp),%eax
  4014b7:	69 c0 ac 7b 00 00    	imul   $0x7bac,%eax,%eax
  4014bd:	89 44 24 d4          	mov    %eax,-0x2c(%rsp)
  4014c1:	8b 44 24 e4          	mov    -0x1c(%rsp),%eax
  4014c5:	69 c0 21 41 00 00    	imul   $0x4121,%eax,%eax
  4014cb:	89 44 24 e4          	mov    %eax,-0x1c(%rsp)
  4014cf:	8b 44 24 dc          	mov    -0x24(%rsp),%eax
  4014d3:	69 c0 bd c7 00 00    	imul   $0xc7bd,%eax,%eax
  4014d9:	89 44 24 dc          	mov    %eax,-0x24(%rsp)
  4014dd:	8b 44 24 d0          	mov    -0x30(%rsp),%eax
  4014e1:	69 c0 d3 ed 00 00    	imul   $0xedd3,%eax,%eax
  4014e7:	89 44 24 d0          	mov    %eax,-0x30(%rsp)
  4014eb:	8b 44 24 e8          	mov    -0x18(%rsp),%eax
  4014ef:	69 c0 e2 8c 00 00    	imul   $0x8ce2,%eax,%eax
  4014f5:	89 44 24 e8          	mov    %eax,-0x18(%rsp)
  4014f9:	8b 44 24 e0          	mov    -0x20(%rsp),%eax
  4014fd:	69 c0 f1 a2 00 00    	imul   $0xa2f1,%eax,%eax
  401503:	89 44 24 e0          	mov    %eax,-0x20(%rsp)
  401507:	8b 44 24 e8          	mov    -0x18(%rsp),%eax
  40150b:	69 c0 86 ca 00 00    	imul   $0xca86,%eax,%eax
  401511:	89 44 24 e8          	mov    %eax,-0x18(%rsp)
  401515:	8b 44 24 d8          	mov    -0x28(%rsp),%eax
  401519:	69 c0 f3 7a 00 00    	imul   $0x7af3,%eax,%eax
  40151f:	89 44 24 d8          	mov    %eax,-0x28(%rsp)
  401523:	8b 44 24 e4          	mov    -0x1c(%rsp),%eax
  401527:	69 c0 ca b9 00 00    	imul   $0xb9ca,%eax,%eax
  40152d:	89 44 24 e4          	mov    %eax,-0x1c(%rsp)
  401531:	8b 44 24 dc          	mov    -0x24(%rsp),%eax
  401535:	69 c0 8a d9 00 00    	imul   $0xd98a,%eax,%eax
  40153b:	89 44 24 dc          	mov    %eax,-0x24(%rsp)
  40153f:	8b 44 24 d8          	mov    -0x28(%rsp),%eax
  401543:	69 c0 da 3c 00 00    	imul   $0x3cda,%eax,%eax
  401549:	89 44 24 d8          	mov    %eax,-0x28(%rsp)
  40154d:	8b 44 24 d0          	mov    -0x30(%rsp),%eax
  401551:	69 c0 75 7f 00 00    	imul   $0x7f75,%eax,%eax
  401557:	89 44 24 d0          	mov    %eax,-0x30(%rsp)
  40155b:	8b 44 24 ec          	mov    -0x14(%rsp),%eax
  40155f:	69 c0 80 cb 00 00    	imul   $0xcb80,%eax,%eax
  401565:	89 44 24 ec          	mov    %eax,-0x14(%rsp)
  401569:	8b 44 24 e0          	mov    -0x20(%rsp),%eax
  40156d:	69 c0 50 33 00 00    	imul   $0x3350,%eax,%eax
  401573:	89 44 24 e0          	mov    %eax,-0x20(%rsp)
  401577:	8b 44 24 e0          	mov    -0x20(%rsp),%eax
  40157b:	69 c0 e5 86 00 00    	imul   $0x86e5,%eax,%eax
  401581:	89 44 24 e0          	mov    %eax,-0x20(%rsp)
  401585:	8b 44 24 e4          	mov    -0x1c(%rsp),%eax
  401589:	69 c0 de 14 00 00    	imul   $0x14de,%eax,%eax
  40158f:	89 44 24 e4          	mov    %eax,-0x1c(%rsp)
  401593:	8b 44 24 f4          	mov    -0xc(%rsp),%eax
  401597:	69 c0 69 e0 00 00    	imul   $0xe069,%eax,%eax
  40159d:	89 44 24 f4          	mov    %eax,-0xc(%rsp)
  4015a1:	8b 44 24 e0          	mov    -0x20(%rsp),%eax
  4015a5:	69 c0 1b e5 00 00    	imul   $0xe51b,%eax,%eax
  4015ab:	89 44 24 e0          	mov    %eax,-0x20(%rsp)
  4015af:	8b 44 24 d8          	mov    -0x28(%rsp),%eax
  4015b3:	69 c0 5a bf 00 00    	imul   $0xbf5a,%eax,%eax
  4015b9:	89 44 24 d8          	mov    %eax,-0x28(%rsp)
  4015bd:	8b 44 24 f0          	mov    -0x10(%rsp),%eax
  4015c1:	69 c0 3d 9a 00 00    	imul   $0x9a3d,%eax,%eax
  4015c7:	89 44 24 f0          	mov    %eax,-0x10(%rsp)
  4015cb:	8b 44 24 e0          	mov    -0x20(%rsp),%eax
  4015cf:	69 c0 ce ca 00 00    	imul   $0xcace,%eax,%eax
  4015d5:	89 44 24 e0          	mov    %eax,-0x20(%rsp)
  4015d9:	8b 44 24 d0          	mov    -0x30(%rsp),%eax
  4015dd:	69 c0 d1 00 00 00    	imul   $0xd1,%eax,%eax
  4015e3:	89 44 24 d0          	mov    %eax,-0x30(%rsp)
  4015e7:	8b 44 24 d8          	mov    -0x28(%rsp),%eax
  4015eb:	69 c0 34 29 00 00    	imul   $0x2934,%eax,%eax
  4015f1:	89 44 24 d8          	mov    %eax,-0x28(%rsp)
  4015f5:	8b 44 24 d0          	mov    -0x30(%rsp),%eax
  4015f9:	69 c0 10 98 00 00    	imul   $0x9810,%eax,%eax
  4015ff:	89 44 24 d0          	mov    %eax,-0x30(%rsp)
  401603:	8b 44 24 dc          	mov    -0x24(%rsp),%eax
  401607:	69 c0 28 91 00 00    	imul   $0x9128,%eax,%eax
  40160d:	89 44 24 dc          	mov    %eax,-0x24(%rsp)
  401611:	8b 44 24 e8          	mov    -0x18(%rsp),%eax
  401615:	69 c0 bc 9e 00 00    	imul   $0x9ebc,%eax,%eax
  40161b:	89 44 24 e8          	mov    %eax,-0x18(%rsp)
  40161f:	8b 44 24 dc          	mov    -0x24(%rsp),%eax
  401623:	69 c0 5f b3 00 00    	imul   $0xb35f,%eax,%eax
  401629:	89 44 24 dc          	mov    %eax,-0x24(%rsp)
  40162d:	8b 44 24 ec          	mov    -0x14(%rsp),%eax
  401631:	69 c0 1c 1c 00 00    	imul   $0x1c1c,%eax,%eax
  401637:	89 44 24 ec          	mov    %eax,-0x14(%rsp)
  40163b:	8b 44 24 f4          	mov    -0xc(%rsp),%eax
  40163f:	69 c0 75 31 00 00    	imul   $0x3175,%eax,%eax
  401645:	89 44 24 f4          	mov    %eax,-0xc(%rsp)
  401649:	8b 44 24 d8          	mov    -0x28(%rsp),%eax
  40164d:	69 c0 05 9a 00 00    	imul   $0x9a05,%eax,%eax
  401653:	89 44 24 d8          	mov    %eax,-0x28(%rsp)
  401657:	8b 44 24 f4          	mov    -0xc(%rsp),%eax
  40165b:	69 c0 bf 64 00 00    	imul   $0x64bf,%eax,%eax
  401661:	89 44 24 f4          	mov    %eax,-0xc(%rsp)
  401665:	8b 44 24 d4          	mov    -0x2c(%rsp),%eax
  401669:	69 c0 ec ba 00 00    	imul   $0xbaec,%eax,%eax
  40166f:	89 44 24 d4          	mov    %eax,-0x2c(%rsp)
  401673:	8b 44 24 dc          	mov    -0x24(%rsp),%eax
  401677:	69 c0 e3 04 00 00    	imul   $0x4e3,%eax,%eax
  40167d:	89 44 24 dc          	mov    %eax,-0x24(%rsp)
  401681:	8b 44 24 e4          	mov    -0x1c(%rsp),%eax
  401685:	69 c0 4f ed 00 00    	imul   $0xed4f,%eax,%eax
  40168b:	89 44 24 e4          	mov    %eax,-0x1c(%rsp)
  40168f:	8b 44 24 d8          	mov    -0x28(%rsp),%eax
  401693:	69 c0 f5 72 00 00    	imul   $0x72f5,%eax,%eax
  401699:	89 44 24 d8          	mov    %eax,-0x28(%rsp)
  40169d:	8b 44 24 e4          	mov    -0x1c(%rsp),%eax
  4016a1:	69 c0 7a 10 00 00    	imul   $0x107a,%eax,%eax
  4016a7:	89 44 24 e4          	mov    %eax,-0x1c(%rsp)
  4016ab:	8b 44 24 d4          	mov    -0x2c(%rsp),%eax
  4016af:	69 c0 ba c4 00 00    	imul   $0xc4ba,%eax,%eax
  4016b5:	89 44 24 d4          	mov    %eax,-0x2c(%rsp)
  4016b9:	8b 44 24 f0          	mov    -0x10(%rsp),%eax
  4016bd:	69 c0 17 d3 00 00    	imul   $0xd317,%eax,%eax
  4016c3:	89 44 24 f0          	mov    %eax,-0x10(%rsp)
  4016c7:	8b 44 24 d4          	mov    -0x2c(%rsp),%eax
  4016cb:	69 c0 0f 8d 00 00    	imul   $0x8d0f,%eax,%eax
  4016d1:	89 44 24 d4          	mov    %eax,-0x2c(%rsp)
  4016d5:	8b 44 24 dc          	mov    -0x24(%rsp),%eax
  4016d9:	69 c0 ed d0 00 00    	imul   $0xd0ed,%eax,%eax
  4016df:	89 44 24 dc          	mov    %eax,-0x24(%rsp)
  4016e3:	8b 44 24 f4          	mov    -0xc(%rsp),%eax
  4016e7:	69 c0 c2 dc 00 00    	imul   $0xdcc2,%eax,%eax
  4016ed:	89 44 24 f4          	mov    %eax,-0xc(%rsp)
  4016f1:	8b 44 24 d8          	mov    -0x28(%rsp),%eax
  4016f5:	69 c0 3a ec 00 00    	imul   $0xec3a,%eax,%eax
  4016fb:	89 44 24 d8          	mov    %eax,-0x28(%rsp)
  4016ff:	8b 44 24 d0          	mov    -0x30(%rsp),%eax
  401703:	69 c0 da 8d 00 00    	imul   $0x8dda,%eax,%eax
  401709:	89 44 24 d0          	mov    %eax,-0x30(%rsp)
  40170d:	8b 44 24 ec          	mov    -0x14(%rsp),%eax
  401711:	69 c0 01 0f 00 00    	imul   $0xf01,%eax,%eax
  401717:	89 44 24 ec          	mov    %eax,-0x14(%rsp)
  40171b:	ba 00 00 00 00       	mov    $0x0,%edx
  401720:	b8 00 00 00 00       	mov    $0x0,%eax
  401725:	eb 0b                	jmp    401732 <scramble+0x4f6>
  401727:	89 d1                	mov    %edx,%ecx
  401729:	8b 4c 8c d0          	mov    -0x30(%rsp,%rcx,4),%ecx
  40172d:	01 c8                	add    %ecx,%eax
  40172f:	83 c2 01             	add    $0x1,%edx
  401732:	83 fa 09             	cmp    $0x9,%edx
  401735:	76 f0                	jbe    401727 <scramble+0x4eb>
  401737:	f3 c3                	repz retq 

0000000000401739 <getbuf>:
  401739:	48 83 ec 28          	sub    $0x28,%rsp
  40173d:	48 89 e7             	mov    %rsp,%rdi
  401740:	e8 4b 03 00 00       	callq  401a90 <Gets>
  401745:	b8 01 00 00 00       	mov    $0x1,%eax
  40174a:	48 83 c4 28          	add    $0x28,%rsp
  40174e:	c3                   	retq   

000000000040174f <touch1>:
  40174f:	48 83 ec 08          	sub    $0x8,%rsp
  401753:	c7 05 7f 3a 20 00 01 	movl   $0x1,0x203a7f(%rip)        # 6051dc <vlevel>
  40175a:	00 00 00 
  40175d:	bf 7f 39 40 00       	mov    $0x40397f,%edi
  401762:	e8 69 f4 ff ff       	callq  400bd0 <puts@plt>
  401767:	bf 01 00 00 00       	mov    $0x1,%edi
  40176c:	e8 07 05 00 00       	callq  401c78 <validate>
  401771:	bf 00 00 00 00       	mov    $0x0,%edi
  401776:	e8 e5 f5 ff ff       	callq  400d60 <exit@plt>

000000000040177b <touch2>:
  40177b:	48 83 ec 08          	sub    $0x8,%rsp
  40177f:	89 fe                	mov    %edi,%esi
  401781:	c7 05 51 3a 20 00 02 	movl   $0x2,0x203a51(%rip)        # 6051dc <vlevel>
  401788:	00 00 00 
  40178b:	3b 3d 53 3a 20 00    	cmp    0x203a53(%rip),%edi        # 6051e4 <cookie>
  401791:	75 1b                	jne    4017ae <touch2+0x33>
  401793:	bf a8 39 40 00       	mov    $0x4039a8,%edi
  401798:	b8 00 00 00 00       	mov    $0x0,%eax
  40179d:	e8 5e f4 ff ff       	callq  400c00 <printf@plt>
  4017a2:	bf 02 00 00 00       	mov    $0x2,%edi
  4017a7:	e8 cc 04 00 00       	callq  401c78 <validate>
  4017ac:	eb 19                	jmp    4017c7 <touch2+0x4c>
  4017ae:	bf d0 39 40 00       	mov    $0x4039d0,%edi
  4017b3:	b8 00 00 00 00       	mov    $0x0,%eax
  4017b8:	e8 43 f4 ff ff       	callq  400c00 <printf@plt>
  4017bd:	bf 02 00 00 00       	mov    $0x2,%edi
  4017c2:	e8 63 05 00 00       	callq  401d2a <fail>
  4017c7:	bf 00 00 00 00       	mov    $0x0,%edi
  4017cc:	e8 8f f5 ff ff       	callq  400d60 <exit@plt>

00000000004017d1 <hexmatch>:
  4017d1:	41 54                	push   %r12
  4017d3:	55                   	push   %rbp
  4017d4:	53                   	push   %rbx
  4017d5:	48 83 ec 70          	sub    $0x70,%rsp
  4017d9:	89 fd                	mov    %edi,%ebp
  4017db:	48 89 f3             	mov    %rsi,%rbx
  4017de:	e8 dd f4 ff ff       	callq  400cc0 <random@plt>
  4017e3:	48 89 c6             	mov    %rax,%rsi
  4017e6:	48 b9 0b d7 a3 70 3d 	movabs $0xa3d70a3d70a3d70b,%rcx
  4017ed:	0a d7 a3 
  4017f0:	48 f7 e9             	imul   %rcx
  4017f3:	48 8d 0c 32          	lea    (%rdx,%rsi,1),%rcx
  4017f7:	48 c1 f9 06          	sar    $0x6,%rcx
  4017fb:	48 89 f0             	mov    %rsi,%rax
  4017fe:	48 c1 f8 3f          	sar    $0x3f,%rax
  401802:	48 29 c1             	sub    %rax,%rcx
  401805:	48 8d 04 89          	lea    (%rcx,%rcx,4),%rax
  401809:	48 8d 04 80          	lea    (%rax,%rax,4),%rax
  40180d:	48 c1 e0 02          	shl    $0x2,%rax
  401811:	48 29 c6             	sub    %rax,%rsi
  401814:	4c 8d 24 34          	lea    (%rsp,%rsi,1),%r12
  401818:	89 ea                	mov    %ebp,%edx
  40181a:	be 9c 39 40 00       	mov    $0x40399c,%esi
  40181f:	4c 89 e7             	mov    %r12,%rdi
  401822:	b8 00 00 00 00       	mov    $0x0,%eax
  401827:	e8 24 f5 ff ff       	callq  400d50 <sprintf@plt>
  40182c:	ba 09 00 00 00       	mov    $0x9,%edx
  401831:	4c 89 e6             	mov    %r12,%rsi
  401834:	48 89 df             	mov    %rbx,%rdi
  401837:	e8 74 f3 ff ff       	callq  400bb0 <strncmp@plt>
  40183c:	85 c0                	test   %eax,%eax
  40183e:	0f 94 c0             	sete   %al
  401841:	0f b6 c0             	movzbl %al,%eax
  401844:	48 83 c4 70          	add    $0x70,%rsp
  401848:	5b                   	pop    %rbx
  401849:	5d                   	pop    %rbp
  40184a:	41 5c                	pop    %r12
  40184c:	c3                   	retq   

000000000040184d <touch3>:
  40184d:	53                   	push   %rbx
  40184e:	48 89 fb             	mov    %rdi,%rbx
  401851:	c7 05 81 39 20 00 03 	movl   $0x3,0x203981(%rip)        # 6051dc <vlevel>
  401858:	00 00 00 
  40185b:	48 89 fe             	mov    %rdi,%rsi
  40185e:	8b 3d 80 39 20 00    	mov    0x203980(%rip),%edi        # 6051e4 <cookie>
  401864:	e8 68 ff ff ff       	callq  4017d1 <hexmatch>
  401869:	85 c0                	test   %eax,%eax
  40186b:	74 1e                	je     40188b <touch3+0x3e>
  40186d:	48 89 de             	mov    %rbx,%rsi
  401870:	bf f8 39 40 00       	mov    $0x4039f8,%edi
  401875:	b8 00 00 00 00       	mov    $0x0,%eax
  40187a:	e8 81 f3 ff ff       	callq  400c00 <printf@plt>
  40187f:	bf 03 00 00 00       	mov    $0x3,%edi
  401884:	e8 ef 03 00 00       	callq  401c78 <validate>
  401889:	eb 1c                	jmp    4018a7 <touch3+0x5a>
  40188b:	48 89 de             	mov    %rbx,%rsi
  40188e:	bf 20 3a 40 00       	mov    $0x403a20,%edi
  401893:	b8 00 00 00 00       	mov    $0x0,%eax
  401898:	e8 63 f3 ff ff       	callq  400c00 <printf@plt>
  40189d:	bf 03 00 00 00       	mov    $0x3,%edi
  4018a2:	e8 83 04 00 00       	callq  401d2a <fail>
  4018a7:	bf 00 00 00 00       	mov    $0x0,%edi
  4018ac:	e8 af f4 ff ff       	callq  400d60 <exit@plt>

00000000004018b1 <test>:
  4018b1:	48 83 ec 08          	sub    $0x8,%rsp
  4018b5:	b8 00 00 00 00       	mov    $0x0,%eax
  4018ba:	e8 7a fe ff ff       	callq  401739 <getbuf>
  4018bf:	89 c6                	mov    %eax,%esi
  4018c1:	bf 48 3a 40 00       	mov    $0x403a48,%edi
  4018c6:	b8 00 00 00 00       	mov    $0x0,%eax
  4018cb:	e8 30 f3 ff ff       	callq  400c00 <printf@plt>
  4018d0:	48 83 c4 08          	add    $0x8,%rsp
  4018d4:	c3                   	retq   

00000000004018d5 <start_farm>:
  4018d5:	b8 01 00 00 00       	mov    $0x1,%eax
  4018da:	c3                   	retq   

00000000004018db <setval_407>:
  4018db:	c7 07 58 90 90 c3    	movl   $0xc3909058,(%rdi)
  4018e1:	c3                   	retq   

00000000004018e2 <addval_453>:
  4018e2:	8d 87 48 89 c7 90    	lea    -0x6f3876b8(%rdi),%eax
  4018e8:	c3                   	retq   

00000000004018e9 <getval_397>:
  4018e9:	b8 58 90 90 90       	mov    $0x90909058,%eax
  4018ee:	c3                   	retq   

00000000004018ef <getval_129>:
  4018ef:	b8 49 89 c7 c3       	mov    $0xc3c78949,%eax
  4018f4:	c3                   	retq   

00000000004018f5 <addval_398>:
  4018f5:	8d 87 48 89 c7 c1    	lea    -0x3e3876b8(%rdi),%eax
  4018fb:	c3                   	retq   

00000000004018fc <setval_200>:
  4018fc:	c7 07 b8 a9 58 92    	movl   $0x9258a9b8,(%rdi)
  401902:	c3                   	retq   

0000000000401903 <getval_445>:
  401903:	b8 60 48 89 c7       	mov    $0xc7894860,%eax
  401908:	c3                   	retq   

0000000000401909 <addval_113>:
  401909:	8d 87 50 58 94 90    	lea    -0x6f6ba7b0(%rdi),%eax
  40190f:	c3                   	retq   

0000000000401910 <mid_farm>:
  401910:	b8 01 00 00 00       	mov    $0x1,%eax
  401915:	c3                   	retq   

0000000000401916 <add_xy>:
  401916:	48 8d 04 37          	lea    (%rdi,%rsi,1),%rax
  40191a:	c3                   	retq   

000000000040191b <setval_417>:
  40191b:	c7 07 68 89 e0 c3    	movl   $0xc3e08968,(%rdi)
  401921:	c3                   	retq   

0000000000401922 <getval_478>:
  401922:	b8 99 ce c3 8f       	mov    $0x8fc3ce99,%eax
  401927:	c3                   	retq   

0000000000401928 <addval_216>:
  401928:	8d 87 48 89 e0 c2    	lea    -0x3d1f76b8(%rdi),%eax
  40192e:	c3                   	retq   

000000000040192f <addval_376>:
  40192f:	8d 87 8d ce 84 c0    	lea    -0x3f7b3173(%rdi),%eax
  401935:	c3                   	retq   

0000000000401936 <getval_111>:
  401936:	b8 99 d1 20 c0       	mov    $0xc020d199,%eax
  40193b:	c3                   	retq   

000000000040193c <getval_104>:
  40193c:	b8 89 ce 90 c3       	mov    $0xc390ce89,%eax
  401941:	c3                   	retq   

0000000000401942 <getval_117>:
  401942:	b8 48 89 e0 c7       	mov    $0xc7e08948,%eax
  401947:	c3                   	retq   

0000000000401948 <getval_315>:
  401948:	b8 88 ce 08 c9       	mov    $0xc908ce88,%eax
  40194d:	c3                   	retq   

000000000040194e <addval_155>:
  40194e:	8d 87 89 c2 28 c0    	lea    -0x3fd73d77(%rdi),%eax
  401954:	c3                   	retq   

0000000000401955 <addval_432>:
  401955:	8d 87 48 89 e0 92    	lea    -0x6d1f76b8(%rdi),%eax
  40195b:	c3                   	retq   

000000000040195c <getval_330>:
  40195c:	b8 48 88 e0 c3       	mov    $0xc3e08848,%eax
  401961:	c3                   	retq   

0000000000401962 <addval_152>:
  401962:	8d 87 89 c2 38 c0    	lea    -0x3fc73d77(%rdi),%eax
  401968:	c3                   	retq   

0000000000401969 <setval_312>:
  401969:	c7 07 89 c2 a4 c0    	movl   $0xc0a4c289,(%rdi)
  40196f:	c3                   	retq   

0000000000401970 <addval_480>:
  401970:	8d 87 8d d1 90 c3    	lea    -0x3c6f2e73(%rdi),%eax
  401976:	c3                   	retq   

0000000000401977 <getval_427>:
  401977:	b8 48 89 e0 90       	mov    $0x90e08948,%eax
  40197c:	c3                   	retq   

000000000040197d <addval_218>:
  40197d:	8d 87 89 d1 20 db    	lea    -0x24df2e77(%rdi),%eax
  401983:	c3                   	retq   

0000000000401984 <setval_295>:
  401984:	c7 07 89 ce 18 c9    	movl   $0xc918ce89,(%rdi)
  40198a:	c3                   	retq   

000000000040198b <getval_422>:
  40198b:	b8 48 89 e0 c3       	mov    $0xc3e08948,%eax
  401990:	c3                   	retq   

0000000000401991 <setval_347>:
  401991:	c7 07 89 c2 00 db    	movl   $0xdb00c289,(%rdi)
  401997:	c3                   	retq   

0000000000401998 <setval_271>:
  401998:	c7 07 89 ce 84 d2    	movl   $0xd284ce89,(%rdi)
  40199e:	c3                   	retq   

000000000040199f <getval_321>:
  40199f:	b8 89 d1 92 90       	mov    $0x9092d189,%eax
  4019a4:	c3                   	retq   

00000000004019a5 <getval_291>:
  4019a5:	b8 99 d1 90 90       	mov    $0x9090d199,%eax
  4019aa:	c3                   	retq   

00000000004019ab <addval_384>:
  4019ab:	8d 87 99 ce 84 c0    	lea    -0x3f7b3167(%rdi),%eax
  4019b1:	c3                   	retq   

00000000004019b2 <addval_225>:
  4019b2:	8d 87 89 d1 c3 83    	lea    -0x7c3c2e77(%rdi),%eax
  4019b8:	c3                   	retq   

00000000004019b9 <addval_272>:
  4019b9:	8d 87 89 c2 38 c9    	lea    -0x36c73d77(%rdi),%eax
  4019bf:	c3                   	retq   

00000000004019c0 <addval_264>:
  4019c0:	8d 87 88 d1 38 c9    	lea    -0x36c72e78(%rdi),%eax
  4019c6:	c3                   	retq   

00000000004019c7 <addval_448>:
  4019c7:	8d 87 89 c2 30 c9    	lea    -0x36cf3d77(%rdi),%eax
  4019cd:	c3                   	retq   

00000000004019ce <getval_380>:
  4019ce:	b8 88 d1 38 d2       	mov    $0xd238d188,%eax
  4019d3:	c3                   	retq   

00000000004019d4 <addval_389>:
  4019d4:	8d 87 89 c2 78 db    	lea    -0x24873d77(%rdi),%eax
  4019da:	c3                   	retq   

00000000004019db <setval_461>:
  4019db:	c7 07 48 89 e0 c2    	movl   $0xc2e08948,(%rdi)
  4019e1:	c3                   	retq   

00000000004019e2 <setval_177>:
  4019e2:	c7 07 88 c2 08 c9    	movl   $0xc908c288,(%rdi)
  4019e8:	c3                   	retq   

00000000004019e9 <setval_474>:
  4019e9:	c7 07 89 ce 18 db    	movl   $0xdb18ce89,(%rdi)
  4019ef:	c3                   	retq   

00000000004019f0 <end_farm>:
  4019f0:	b8 01 00 00 00       	mov    $0x1,%eax
  4019f5:	c3                   	retq   

00000000004019f6 <save_char>:
  4019f6:	8b 05 08 44 20 00    	mov    0x204408(%rip),%eax        # 605e04 <gets_cnt>
  4019fc:	3d ff 03 00 00       	cmp    $0x3ff,%eax
  401a01:	7f 49                	jg     401a4c <save_char+0x56>
  401a03:	8d 14 40             	lea    (%rax,%rax,2),%edx
  401a06:	89 f9                	mov    %edi,%ecx
  401a08:	c0 e9 04             	shr    $0x4,%cl
  401a0b:	83 e1 0f             	and    $0xf,%ecx
  401a0e:	0f b6 b1 70 3d 40 00 	movzbl 0x403d70(%rcx),%esi
  401a15:	48 63 ca             	movslq %edx,%rcx
  401a18:	40 88 b1 00 52 60 00 	mov    %sil,0x605200(%rcx)
  401a1f:	8d 4a 01             	lea    0x1(%rdx),%ecx
  401a22:	83 e7 0f             	and    $0xf,%edi
  401a25:	0f b6 b7 70 3d 40 00 	movzbl 0x403d70(%rdi),%esi
  401a2c:	48 63 c9             	movslq %ecx,%rcx
  401a2f:	40 88 b1 00 52 60 00 	mov    %sil,0x605200(%rcx)
  401a36:	83 c2 02             	add    $0x2,%edx
  401a39:	48 63 d2             	movslq %edx,%rdx
  401a3c:	c6 82 00 52 60 00 20 	movb   $0x20,0x605200(%rdx)
  401a43:	83 c0 01             	add    $0x1,%eax
  401a46:	89 05 b8 43 20 00    	mov    %eax,0x2043b8(%rip)        # 605e04 <gets_cnt>
  401a4c:	f3 c3                	repz retq 

0000000000401a4e <save_term>:
  401a4e:	8b 05 b0 43 20 00    	mov    0x2043b0(%rip),%eax        # 605e04 <gets_cnt>
  401a54:	8d 04 40             	lea    (%rax,%rax,2),%eax
  401a57:	48 98                	cltq   
  401a59:	c6 80 00 52 60 00 00 	movb   $0x0,0x605200(%rax)
  401a60:	c3                   	retq   

0000000000401a61 <check_fail>:
  401a61:	48 83 ec 08          	sub    $0x8,%rsp
  401a65:	0f be 35 9c 43 20 00 	movsbl 0x20439c(%rip),%esi        # 605e08 <target_prefix>
  401a6c:	b9 00 52 60 00       	mov    $0x605200,%ecx
  401a71:	8b 15 61 37 20 00    	mov    0x203761(%rip),%edx        # 6051d8 <check_level>
  401a77:	bf 6b 3a 40 00       	mov    $0x403a6b,%edi
  401a7c:	b8 00 00 00 00       	mov    $0x0,%eax
  401a81:	e8 7a f1 ff ff       	callq  400c00 <printf@plt>
  401a86:	bf 01 00 00 00       	mov    $0x1,%edi
  401a8b:	e8 d0 f2 ff ff       	callq  400d60 <exit@plt>

0000000000401a90 <Gets>:
  401a90:	41 54                	push   %r12
  401a92:	55                   	push   %rbp
  401a93:	53                   	push   %rbx
  401a94:	49 89 fc             	mov    %rdi,%r12
  401a97:	c7 05 63 43 20 00 00 	movl   $0x0,0x204363(%rip)        # 605e04 <gets_cnt>
  401a9e:	00 00 00 
  401aa1:	48 89 fb             	mov    %rdi,%rbx
  401aa4:	eb 11                	jmp    401ab7 <Gets+0x27>
  401aa6:	48 8d 6b 01          	lea    0x1(%rbx),%rbp
  401aaa:	88 03                	mov    %al,(%rbx)
  401aac:	0f b6 f8             	movzbl %al,%edi
  401aaf:	e8 42 ff ff ff       	callq  4019f6 <save_char>
  401ab4:	48 89 eb             	mov    %rbp,%rbx
  401ab7:	48 8b 3d 12 37 20 00 	mov    0x203712(%rip),%rdi        # 6051d0 <infile>
  401abe:	e8 0d f2 ff ff       	callq  400cd0 <_IO_getc@plt>
  401ac3:	83 f8 ff             	cmp    $0xffffffff,%eax
  401ac6:	74 05                	je     401acd <Gets+0x3d>
  401ac8:	83 f8 0a             	cmp    $0xa,%eax
  401acb:	75 d9                	jne    401aa6 <Gets+0x16>
  401acd:	c6 03 00             	movb   $0x0,(%rbx)
  401ad0:	b8 00 00 00 00       	mov    $0x0,%eax
  401ad5:	e8 74 ff ff ff       	callq  401a4e <save_term>
  401ada:	4c 89 e0             	mov    %r12,%rax
  401add:	5b                   	pop    %rbx
  401ade:	5d                   	pop    %rbp
  401adf:	41 5c                	pop    %r12
  401ae1:	c3                   	retq   

0000000000401ae2 <notify_server>:
  401ae2:	83 3d ff 36 20 00 00 	cmpl   $0x0,0x2036ff(%rip)        # 6051e8 <is_checker>
  401ae9:	0f 85 87 01 00 00    	jne    401c76 <notify_server+0x194>
  401aef:	53                   	push   %rbx
  401af0:	48 81 ec 00 40 00 00 	sub    $0x4000,%rsp
  401af7:	89 fb                	mov    %edi,%ebx
  401af9:	8b 05 05 43 20 00    	mov    0x204305(%rip),%eax        # 605e04 <gets_cnt>
  401aff:	83 c0 64             	add    $0x64,%eax
  401b02:	3d 00 20 00 00       	cmp    $0x2000,%eax
  401b07:	7e 19                	jle    401b22 <notify_server+0x40>
  401b09:	bf a0 3b 40 00       	mov    $0x403ba0,%edi
  401b0e:	b8 00 00 00 00       	mov    $0x0,%eax
  401b13:	e8 e8 f0 ff ff       	callq  400c00 <printf@plt>
  401b18:	bf 01 00 00 00       	mov    $0x1,%edi
  401b1d:	e8 3e f2 ff ff       	callq  400d60 <exit@plt>
  401b22:	44 0f be 0d de 42 20 	movsbl 0x2042de(%rip),%r9d        # 605e08 <target_prefix>
  401b29:	00 
  401b2a:	83 3d 37 36 20 00 00 	cmpl   $0x0,0x203637(%rip)        # 605168 <notify>
  401b31:	74 09                	je     401b3c <notify_server+0x5a>
  401b33:	44 8b 05 a6 36 20 00 	mov    0x2036a6(%rip),%r8d        # 6051e0 <authkey>
  401b3a:	eb 06                	jmp    401b42 <notify_server+0x60>
  401b3c:	41 b8 ff ff ff ff    	mov    $0xffffffff,%r8d
  401b42:	85 db                	test   %ebx,%ebx
  401b44:	74 07                	je     401b4d <notify_server+0x6b>
  401b46:	b9 81 3a 40 00       	mov    $0x403a81,%ecx
  401b4b:	eb 05                	jmp    401b52 <notify_server+0x70>
  401b4d:	b9 86 3a 40 00       	mov    $0x403a86,%ecx
  401b52:	68 00 52 60 00       	pushq  $0x605200
  401b57:	56                   	push   %rsi
  401b58:	8b 15 aa 32 20 00    	mov    0x2032aa(%rip),%edx        # 604e08 <target_id>
  401b5e:	be 8b 3a 40 00       	mov    $0x403a8b,%esi
  401b63:	48 8d bc 24 10 20 00 	lea    0x2010(%rsp),%rdi
  401b6a:	00 
  401b6b:	b8 00 00 00 00       	mov    $0x0,%eax
  401b70:	e8 db f1 ff ff       	callq  400d50 <sprintf@plt>
  401b75:	48 83 c4 10          	add    $0x10,%rsp
  401b79:	83 3d e8 35 20 00 00 	cmpl   $0x0,0x2035e8(%rip)        # 605168 <notify>
  401b80:	74 74                	je     401bf6 <notify_server+0x114>
  401b82:	85 db                	test   %ebx,%ebx
  401b84:	74 64                	je     401bea <notify_server+0x108>
  401b86:	49 89 e1             	mov    %rsp,%r9
  401b89:	41 b8 00 00 00 00    	mov    $0x0,%r8d
  401b8f:	48 8d 8c 24 00 20 00 	lea    0x2000(%rsp),%rcx
  401b96:	00 
  401b97:	48 8b 15 72 32 20 00 	mov    0x203272(%rip),%rdx        # 604e10 <lab>
  401b9e:	48 8b 35 73 32 20 00 	mov    0x203273(%rip),%rsi        # 604e18 <course>
  401ba5:	48 8b 3d 54 32 20 00 	mov    0x203254(%rip),%rdi        # 604e00 <user_id>
  401bac:	e8 98 0f 00 00       	callq  402b49 <driver_post>
  401bb1:	85 c0                	test   %eax,%eax
  401bb3:	79 1c                	jns    401bd1 <notify_server+0xef>
  401bb5:	48 89 e6             	mov    %rsp,%rsi
  401bb8:	bf a7 3a 40 00       	mov    $0x403aa7,%edi
  401bbd:	b8 00 00 00 00       	mov    $0x0,%eax
  401bc2:	e8 39 f0 ff ff       	callq  400c00 <printf@plt>
  401bc7:	bf 01 00 00 00       	mov    $0x1,%edi
  401bcc:	e8 8f f1 ff ff       	callq  400d60 <exit@plt>
  401bd1:	bf d0 3b 40 00       	mov    $0x403bd0,%edi
  401bd6:	e8 f5 ef ff ff       	callq  400bd0 <puts@plt>
  401bdb:	bf b3 3a 40 00       	mov    $0x403ab3,%edi
  401be0:	e8 eb ef ff ff       	callq  400bd0 <puts@plt>
  401be5:	e9 84 00 00 00       	jmpq   401c6e <notify_server+0x18c>
  401bea:	bf bd 3a 40 00       	mov    $0x403abd,%edi
  401bef:	e8 dc ef ff ff       	callq  400bd0 <puts@plt>
  401bf4:	eb 78                	jmp    401c6e <notify_server+0x18c>
  401bf6:	85 db                	test   %ebx,%ebx
  401bf8:	74 07                	je     401c01 <notify_server+0x11f>
  401bfa:	be 81 3a 40 00       	mov    $0x403a81,%esi
  401bff:	eb 05                	jmp    401c06 <notify_server+0x124>
  401c01:	be 86 3a 40 00       	mov    $0x403a86,%esi
  401c06:	bf 08 3c 40 00       	mov    $0x403c08,%edi
  401c0b:	b8 00 00 00 00       	mov    $0x0,%eax
  401c10:	e8 eb ef ff ff       	callq  400c00 <printf@plt>
  401c15:	48 8b 35 e4 31 20 00 	mov    0x2031e4(%rip),%rsi        # 604e00 <user_id>
  401c1c:	bf c4 3a 40 00       	mov    $0x403ac4,%edi
  401c21:	b8 00 00 00 00       	mov    $0x0,%eax
  401c26:	e8 d5 ef ff ff       	callq  400c00 <printf@plt>
  401c2b:	48 8b 35 e6 31 20 00 	mov    0x2031e6(%rip),%rsi        # 604e18 <course>
  401c32:	bf d1 3a 40 00       	mov    $0x403ad1,%edi
  401c37:	b8 00 00 00 00       	mov    $0x0,%eax
  401c3c:	e8 bf ef ff ff       	callq  400c00 <printf@plt>
  401c41:	48 8b 35 c8 31 20 00 	mov    0x2031c8(%rip),%rsi        # 604e10 <lab>
  401c48:	bf dd 3a 40 00       	mov    $0x403add,%edi
  401c4d:	b8 00 00 00 00       	mov    $0x0,%eax
  401c52:	e8 a9 ef ff ff       	callq  400c00 <printf@plt>
  401c57:	48 8d b4 24 00 20 00 	lea    0x2000(%rsp),%rsi
  401c5e:	00 
  401c5f:	bf e6 3a 40 00       	mov    $0x403ae6,%edi
  401c64:	b8 00 00 00 00       	mov    $0x0,%eax
  401c69:	e8 92 ef ff ff       	callq  400c00 <printf@plt>
  401c6e:	48 81 c4 00 40 00 00 	add    $0x4000,%rsp
  401c75:	5b                   	pop    %rbx
  401c76:	f3 c3                	repz retq 

0000000000401c78 <validate>:
  401c78:	53                   	push   %rbx
  401c79:	89 fb                	mov    %edi,%ebx
  401c7b:	83 3d 66 35 20 00 00 	cmpl   $0x0,0x203566(%rip)        # 6051e8 <is_checker>
  401c82:	74 60                	je     401ce4 <validate+0x6c>
  401c84:	39 3d 52 35 20 00    	cmp    %edi,0x203552(%rip)        # 6051dc <vlevel>
  401c8a:	74 14                	je     401ca0 <validate+0x28>
  401c8c:	bf f2 3a 40 00       	mov    $0x403af2,%edi
  401c91:	e8 3a ef ff ff       	callq  400bd0 <puts@plt>
  401c96:	b8 00 00 00 00       	mov    $0x0,%eax
  401c9b:	e8 c1 fd ff ff       	callq  401a61 <check_fail>
  401ca0:	8b 35 32 35 20 00    	mov    0x203532(%rip),%esi        # 6051d8 <check_level>
  401ca6:	39 fe                	cmp    %edi,%esi
  401ca8:	74 1b                	je     401cc5 <validate+0x4d>
  401caa:	89 fa                	mov    %edi,%edx
  401cac:	bf 30 3c 40 00       	mov    $0x403c30,%edi
  401cb1:	b8 00 00 00 00       	mov    $0x0,%eax
  401cb6:	e8 45 ef ff ff       	callq  400c00 <printf@plt>
  401cbb:	b8 00 00 00 00       	mov    $0x0,%eax
  401cc0:	e8 9c fd ff ff       	callq  401a61 <check_fail>
  401cc5:	0f be 35 3c 41 20 00 	movsbl 0x20413c(%rip),%esi        # 605e08 <target_prefix>
  401ccc:	b9 00 52 60 00       	mov    $0x605200,%ecx
  401cd1:	89 fa                	mov    %edi,%edx
  401cd3:	bf 10 3b 40 00       	mov    $0x403b10,%edi
  401cd8:	b8 00 00 00 00       	mov    $0x0,%eax
  401cdd:	e8 1e ef ff ff       	callq  400c00 <printf@plt>
  401ce2:	eb 44                	jmp    401d28 <validate+0xb0>
  401ce4:	39 3d f2 34 20 00    	cmp    %edi,0x2034f2(%rip)        # 6051dc <vlevel>
  401cea:	74 18                	je     401d04 <validate+0x8c>
  401cec:	bf f2 3a 40 00       	mov    $0x403af2,%edi
  401cf1:	e8 da ee ff ff       	callq  400bd0 <puts@plt>
  401cf6:	89 de                	mov    %ebx,%esi
  401cf8:	bf 00 00 00 00       	mov    $0x0,%edi
  401cfd:	e8 e0 fd ff ff       	callq  401ae2 <notify_server>
  401d02:	eb 24                	jmp    401d28 <validate+0xb0>
  401d04:	0f be 15 fd 40 20 00 	movsbl 0x2040fd(%rip),%edx        # 605e08 <target_prefix>
  401d0b:	89 fe                	mov    %edi,%esi
  401d0d:	bf 58 3c 40 00       	mov    $0x403c58,%edi
  401d12:	b8 00 00 00 00       	mov    $0x0,%eax
  401d17:	e8 e4 ee ff ff       	callq  400c00 <printf@plt>
  401d1c:	89 de                	mov    %ebx,%esi
  401d1e:	bf 01 00 00 00       	mov    $0x1,%edi
  401d23:	e8 ba fd ff ff       	callq  401ae2 <notify_server>
  401d28:	5b                   	pop    %rbx
  401d29:	c3                   	retq   

0000000000401d2a <fail>:
  401d2a:	48 83 ec 08          	sub    $0x8,%rsp
  401d2e:	83 3d b3 34 20 00 00 	cmpl   $0x0,0x2034b3(%rip)        # 6051e8 <is_checker>
  401d35:	74 0a                	je     401d41 <fail+0x17>
  401d37:	b8 00 00 00 00       	mov    $0x0,%eax
  401d3c:	e8 20 fd ff ff       	callq  401a61 <check_fail>
  401d41:	89 fe                	mov    %edi,%esi
  401d43:	bf 00 00 00 00       	mov    $0x0,%edi
  401d48:	e8 95 fd ff ff       	callq  401ae2 <notify_server>
  401d4d:	48 83 c4 08          	add    $0x8,%rsp
  401d51:	c3                   	retq   

0000000000401d52 <bushandler>:
  401d52:	48 83 ec 08          	sub    $0x8,%rsp
  401d56:	83 3d 8b 34 20 00 00 	cmpl   $0x0,0x20348b(%rip)        # 6051e8 <is_checker>
  401d5d:	74 14                	je     401d73 <bushandler+0x21>
  401d5f:	bf 25 3b 40 00       	mov    $0x403b25,%edi
  401d64:	e8 67 ee ff ff       	callq  400bd0 <puts@plt>
  401d69:	b8 00 00 00 00       	mov    $0x0,%eax
  401d6e:	e8 ee fc ff ff       	callq  401a61 <check_fail>
  401d73:	bf 90 3c 40 00       	mov    $0x403c90,%edi
  401d78:	e8 53 ee ff ff       	callq  400bd0 <puts@plt>
  401d7d:	bf 2f 3b 40 00       	mov    $0x403b2f,%edi
  401d82:	e8 49 ee ff ff       	callq  400bd0 <puts@plt>
  401d87:	be 00 00 00 00       	mov    $0x0,%esi
  401d8c:	bf 00 00 00 00       	mov    $0x0,%edi
  401d91:	e8 4c fd ff ff       	callq  401ae2 <notify_server>
  401d96:	bf 01 00 00 00       	mov    $0x1,%edi
  401d9b:	e8 c0 ef ff ff       	callq  400d60 <exit@plt>

0000000000401da0 <seghandler>:
  401da0:	48 83 ec 08          	sub    $0x8,%rsp
  401da4:	83 3d 3d 34 20 00 00 	cmpl   $0x0,0x20343d(%rip)        # 6051e8 <is_checker>
  401dab:	74 14                	je     401dc1 <seghandler+0x21>
  401dad:	bf 45 3b 40 00       	mov    $0x403b45,%edi
  401db2:	e8 19 ee ff ff       	callq  400bd0 <puts@plt>
  401db7:	b8 00 00 00 00       	mov    $0x0,%eax
  401dbc:	e8 a0 fc ff ff       	callq  401a61 <check_fail>
  401dc1:	bf b0 3c 40 00       	mov    $0x403cb0,%edi
  401dc6:	e8 05 ee ff ff       	callq  400bd0 <puts@plt>
  401dcb:	bf 2f 3b 40 00       	mov    $0x403b2f,%edi
  401dd0:	e8 fb ed ff ff       	callq  400bd0 <puts@plt>
  401dd5:	be 00 00 00 00       	mov    $0x0,%esi
  401dda:	bf 00 00 00 00       	mov    $0x0,%edi
  401ddf:	e8 fe fc ff ff       	callq  401ae2 <notify_server>
  401de4:	bf 01 00 00 00       	mov    $0x1,%edi
  401de9:	e8 72 ef ff ff       	callq  400d60 <exit@plt>

0000000000401dee <illegalhandler>:
  401dee:	48 83 ec 08          	sub    $0x8,%rsp
  401df2:	83 3d ef 33 20 00 00 	cmpl   $0x0,0x2033ef(%rip)        # 6051e8 <is_checker>
  401df9:	74 14                	je     401e0f <illegalhandler+0x21>
  401dfb:	bf 58 3b 40 00       	mov    $0x403b58,%edi
  401e00:	e8 cb ed ff ff       	callq  400bd0 <puts@plt>
  401e05:	b8 00 00 00 00       	mov    $0x0,%eax
  401e0a:	e8 52 fc ff ff       	callq  401a61 <check_fail>
  401e0f:	bf d8 3c 40 00       	mov    $0x403cd8,%edi
  401e14:	e8 b7 ed ff ff       	callq  400bd0 <puts@plt>
  401e19:	bf 2f 3b 40 00       	mov    $0x403b2f,%edi
  401e1e:	e8 ad ed ff ff       	callq  400bd0 <puts@plt>
  401e23:	be 00 00 00 00       	mov    $0x0,%esi
  401e28:	bf 00 00 00 00       	mov    $0x0,%edi
  401e2d:	e8 b0 fc ff ff       	callq  401ae2 <notify_server>
  401e32:	bf 01 00 00 00       	mov    $0x1,%edi
  401e37:	e8 24 ef ff ff       	callq  400d60 <exit@plt>

0000000000401e3c <sigalrmhandler>:
  401e3c:	48 83 ec 08          	sub    $0x8,%rsp
  401e40:	83 3d a1 33 20 00 00 	cmpl   $0x0,0x2033a1(%rip)        # 6051e8 <is_checker>
  401e47:	74 14                	je     401e5d <sigalrmhandler+0x21>
  401e49:	bf 6c 3b 40 00       	mov    $0x403b6c,%edi
  401e4e:	e8 7d ed ff ff       	callq  400bd0 <puts@plt>
  401e53:	b8 00 00 00 00       	mov    $0x0,%eax
  401e58:	e8 04 fc ff ff       	callq  401a61 <check_fail>
  401e5d:	be 05 00 00 00       	mov    $0x5,%esi
  401e62:	bf 08 3d 40 00       	mov    $0x403d08,%edi
  401e67:	b8 00 00 00 00       	mov    $0x0,%eax
  401e6c:	e8 8f ed ff ff       	callq  400c00 <printf@plt>
  401e71:	be 00 00 00 00       	mov    $0x0,%esi
  401e76:	bf 00 00 00 00       	mov    $0x0,%edi
  401e7b:	e8 62 fc ff ff       	callq  401ae2 <notify_server>
  401e80:	bf 01 00 00 00       	mov    $0x1,%edi
  401e85:	e8 d6 ee ff ff       	callq  400d60 <exit@plt>

0000000000401e8a <launch>:
  401e8a:	55                   	push   %rbp
  401e8b:	48 89 e5             	mov    %rsp,%rbp
  401e8e:	48 89 fa             	mov    %rdi,%rdx
  401e91:	48 8d 47 1e          	lea    0x1e(%rdi),%rax
  401e95:	48 83 e0 f0          	and    $0xfffffffffffffff0,%rax
  401e99:	48 29 c4             	sub    %rax,%rsp
  401e9c:	48 8d 44 24 0f       	lea    0xf(%rsp),%rax
  401ea1:	48 83 e0 f0          	and    $0xfffffffffffffff0,%rax
  401ea5:	48 89 c7             	mov    %rax,%rdi
  401ea8:	be f4 00 00 00       	mov    $0xf4,%esi
  401ead:	e8 5e ed ff ff       	callq  400c10 <memset@plt>
  401eb2:	48 8b 05 c7 32 20 00 	mov    0x2032c7(%rip),%rax        # 605180 <stdin@@GLIBC_2.2.5>
  401eb9:	48 39 05 10 33 20 00 	cmp    %rax,0x203310(%rip)        # 6051d0 <infile>
  401ec0:	75 0f                	jne    401ed1 <launch+0x47>
  401ec2:	bf 74 3b 40 00       	mov    $0x403b74,%edi
  401ec7:	b8 00 00 00 00       	mov    $0x0,%eax
  401ecc:	e8 2f ed ff ff       	callq  400c00 <printf@plt>
  401ed1:	c7 05 01 33 20 00 00 	movl   $0x0,0x203301(%rip)        # 6051dc <vlevel>
  401ed8:	00 00 00 
  401edb:	b8 00 00 00 00       	mov    $0x0,%eax
  401ee0:	e8 cc f9 ff ff       	callq  4018b1 <test>
  401ee5:	83 3d fc 32 20 00 00 	cmpl   $0x0,0x2032fc(%rip)        # 6051e8 <is_checker>
  401eec:	74 14                	je     401f02 <launch+0x78>
  401eee:	bf 81 3b 40 00       	mov    $0x403b81,%edi
  401ef3:	e8 d8 ec ff ff       	callq  400bd0 <puts@plt>
  401ef8:	b8 00 00 00 00       	mov    $0x0,%eax
  401efd:	e8 5f fb ff ff       	callq  401a61 <check_fail>
  401f02:	bf 8c 3b 40 00       	mov    $0x403b8c,%edi
  401f07:	e8 c4 ec ff ff       	callq  400bd0 <puts@plt>
  401f0c:	c9                   	leaveq 
  401f0d:	c3                   	retq   

0000000000401f0e <stable_launch>:
  401f0e:	53                   	push   %rbx
  401f0f:	48 89 3d b2 32 20 00 	mov    %rdi,0x2032b2(%rip)        # 6051c8 <global_offset>
  401f16:	41 b9 00 00 00 00    	mov    $0x0,%r9d
  401f1c:	41 b8 00 00 00 00    	mov    $0x0,%r8d
  401f22:	b9 32 01 00 00       	mov    $0x132,%ecx
  401f27:	ba 07 00 00 00       	mov    $0x7,%edx
  401f2c:	be 00 00 10 00       	mov    $0x100000,%esi
  401f31:	bf 00 60 58 55       	mov    $0x55586000,%edi
  401f36:	e8 b5 ec ff ff       	callq  400bf0 <mmap@plt>
  401f3b:	48 89 c3             	mov    %rax,%rbx
  401f3e:	48 3d 00 60 58 55    	cmp    $0x55586000,%rax
  401f44:	74 32                	je     401f78 <stable_launch+0x6a>
  401f46:	be 00 00 10 00       	mov    $0x100000,%esi
  401f4b:	48 89 c7             	mov    %rax,%rdi
  401f4e:	e8 9d ed ff ff       	callq  400cf0 <munmap@plt>
  401f53:	ba 00 60 58 55       	mov    $0x55586000,%edx
  401f58:	be 40 3d 40 00       	mov    $0x403d40,%esi
  401f5d:	48 8b 3d 44 32 20 00 	mov    0x203244(%rip),%rdi        # 6051a8 <stderr@@GLIBC_2.2.5>
  401f64:	b8 00 00 00 00       	mov    $0x0,%eax
  401f69:	e8 22 ed ff ff       	callq  400c90 <fprintf@plt>
  401f6e:	bf 01 00 00 00       	mov    $0x1,%edi
  401f73:	e8 e8 ed ff ff       	callq  400d60 <exit@plt>
  401f78:	48 8d 90 f8 ff 0f 00 	lea    0xffff8(%rax),%rdx
  401f7f:	48 89 15 8a 3e 20 00 	mov    %rdx,0x203e8a(%rip)        # 605e10 <stack_top>
  401f86:	48 89 e0             	mov    %rsp,%rax
  401f89:	48 89 d4             	mov    %rdx,%rsp
  401f8c:	48 89 c2             	mov    %rax,%rdx
  401f8f:	48 89 15 2a 32 20 00 	mov    %rdx,0x20322a(%rip)        # 6051c0 <global_save_stack>
  401f96:	48 8b 3d 2b 32 20 00 	mov    0x20322b(%rip),%rdi        # 6051c8 <global_offset>
  401f9d:	e8 e8 fe ff ff       	callq  401e8a <launch>
  401fa2:	48 8b 05 17 32 20 00 	mov    0x203217(%rip),%rax        # 6051c0 <global_save_stack>
  401fa9:	48 89 c4             	mov    %rax,%rsp
  401fac:	be 00 00 10 00       	mov    $0x100000,%esi
  401fb1:	48 89 df             	mov    %rbx,%rdi
  401fb4:	e8 37 ed ff ff       	callq  400cf0 <munmap@plt>
  401fb9:	5b                   	pop    %rbx
  401fba:	c3                   	retq   

0000000000401fbb <rio_readinitb>:
  401fbb:	89 37                	mov    %esi,(%rdi)
  401fbd:	c7 47 04 00 00 00 00 	movl   $0x0,0x4(%rdi)
  401fc4:	48 8d 47 10          	lea    0x10(%rdi),%rax
  401fc8:	48 89 47 08          	mov    %rax,0x8(%rdi)
  401fcc:	c3                   	retq   

0000000000401fcd <sigalrm_handler>:
  401fcd:	48 83 ec 08          	sub    $0x8,%rsp
  401fd1:	ba 00 00 00 00       	mov    $0x0,%edx
  401fd6:	be 80 3d 40 00       	mov    $0x403d80,%esi
  401fdb:	48 8b 3d c6 31 20 00 	mov    0x2031c6(%rip),%rdi        # 6051a8 <stderr@@GLIBC_2.2.5>
  401fe2:	b8 00 00 00 00       	mov    $0x0,%eax
  401fe7:	e8 a4 ec ff ff       	callq  400c90 <fprintf@plt>
  401fec:	bf 01 00 00 00       	mov    $0x1,%edi
  401ff1:	e8 6a ed ff ff       	callq  400d60 <exit@plt>

0000000000401ff6 <urlencode>:
  401ff6:	41 54                	push   %r12
  401ff8:	55                   	push   %rbp
  401ff9:	53                   	push   %rbx
  401ffa:	48 83 ec 10          	sub    $0x10,%rsp
  401ffe:	48 89 fb             	mov    %rdi,%rbx
  402001:	48 89 f5             	mov    %rsi,%rbp
  402004:	b8 00 00 00 00       	mov    $0x0,%eax
  402009:	48 c7 c1 ff ff ff ff 	mov    $0xffffffffffffffff,%rcx
  402010:	f2 ae                	repnz scas %es:(%rdi),%al
  402012:	48 f7 d1             	not    %rcx
  402015:	8d 41 ff             	lea    -0x1(%rcx),%eax
  402018:	e9 93 00 00 00       	jmpq   4020b0 <urlencode+0xba>
  40201d:	0f b6 13             	movzbl (%rbx),%edx
  402020:	80 fa 2a             	cmp    $0x2a,%dl
  402023:	0f 94 c1             	sete   %cl
  402026:	80 fa 2d             	cmp    $0x2d,%dl
  402029:	0f 94 c0             	sete   %al
  40202c:	08 c1                	or     %al,%cl
  40202e:	75 1f                	jne    40204f <urlencode+0x59>
  402030:	80 fa 2e             	cmp    $0x2e,%dl
  402033:	74 1a                	je     40204f <urlencode+0x59>
  402035:	80 fa 5f             	cmp    $0x5f,%dl
  402038:	74 15                	je     40204f <urlencode+0x59>
  40203a:	8d 42 d0             	lea    -0x30(%rdx),%eax
  40203d:	3c 09                	cmp    $0x9,%al
  40203f:	76 0e                	jbe    40204f <urlencode+0x59>
  402041:	8d 42 bf             	lea    -0x41(%rdx),%eax
  402044:	3c 19                	cmp    $0x19,%al
  402046:	76 07                	jbe    40204f <urlencode+0x59>
  402048:	8d 42 9f             	lea    -0x61(%rdx),%eax
  40204b:	3c 19                	cmp    $0x19,%al
  40204d:	77 09                	ja     402058 <urlencode+0x62>
  40204f:	88 55 00             	mov    %dl,0x0(%rbp)
  402052:	48 8d 6d 01          	lea    0x1(%rbp),%rbp
  402056:	eb 51                	jmp    4020a9 <urlencode+0xb3>
  402058:	80 fa 20             	cmp    $0x20,%dl
  40205b:	75 0a                	jne    402067 <urlencode+0x71>
  40205d:	c6 45 00 2b          	movb   $0x2b,0x0(%rbp)
  402061:	48 8d 6d 01          	lea    0x1(%rbp),%rbp
  402065:	eb 42                	jmp    4020a9 <urlencode+0xb3>
  402067:	8d 42 e0             	lea    -0x20(%rdx),%eax
  40206a:	3c 5f                	cmp    $0x5f,%al
  40206c:	0f 96 c1             	setbe  %cl
  40206f:	80 fa 09             	cmp    $0x9,%dl
  402072:	0f 94 c0             	sete   %al
  402075:	08 c1                	or     %al,%cl
  402077:	74 45                	je     4020be <urlencode+0xc8>
  402079:	0f b6 d2             	movzbl %dl,%edx
  40207c:	be 18 3e 40 00       	mov    $0x403e18,%esi
  402081:	48 89 e7             	mov    %rsp,%rdi
  402084:	b8 00 00 00 00       	mov    $0x0,%eax
  402089:	e8 c2 ec ff ff       	callq  400d50 <sprintf@plt>
  40208e:	0f b6 04 24          	movzbl (%rsp),%eax
  402092:	88 45 00             	mov    %al,0x0(%rbp)
  402095:	0f b6 44 24 01       	movzbl 0x1(%rsp),%eax
  40209a:	88 45 01             	mov    %al,0x1(%rbp)
  40209d:	0f b6 44 24 02       	movzbl 0x2(%rsp),%eax
  4020a2:	88 45 02             	mov    %al,0x2(%rbp)
  4020a5:	48 8d 6d 03          	lea    0x3(%rbp),%rbp
  4020a9:	48 83 c3 01          	add    $0x1,%rbx
  4020ad:	44 89 e0             	mov    %r12d,%eax
  4020b0:	44 8d 60 ff          	lea    -0x1(%rax),%r12d
  4020b4:	85 c0                	test   %eax,%eax
  4020b6:	0f 85 61 ff ff ff    	jne    40201d <urlencode+0x27>
  4020bc:	eb 05                	jmp    4020c3 <urlencode+0xcd>
  4020be:	b8 ff ff ff ff       	mov    $0xffffffff,%eax
  4020c3:	48 83 c4 10          	add    $0x10,%rsp
  4020c7:	5b                   	pop    %rbx
  4020c8:	5d                   	pop    %rbp
  4020c9:	41 5c                	pop    %r12
  4020cb:	c3                   	retq   

00000000004020cc <rio_writen>:
  4020cc:	41 55                	push   %r13
  4020ce:	41 54                	push   %r12
  4020d0:	55                   	push   %rbp
  4020d1:	53                   	push   %rbx
  4020d2:	48 83 ec 08          	sub    $0x8,%rsp
  4020d6:	41 89 fc             	mov    %edi,%r12d
  4020d9:	48 89 f5             	mov    %rsi,%rbp
  4020dc:	49 89 d5             	mov    %rdx,%r13
  4020df:	48 89 d3             	mov    %rdx,%rbx
  4020e2:	eb 28                	jmp    40210c <rio_writen+0x40>
  4020e4:	48 89 da             	mov    %rbx,%rdx
  4020e7:	48 89 ee             	mov    %rbp,%rsi
  4020ea:	44 89 e7             	mov    %r12d,%edi
  4020ed:	e8 ee ea ff ff       	callq  400be0 <write@plt>
  4020f2:	48 85 c0             	test   %rax,%rax
  4020f5:	7f 0f                	jg     402106 <rio_writen+0x3a>
  4020f7:	e8 94 ea ff ff       	callq  400b90 <__errno_location@plt>
  4020fc:	83 38 04             	cmpl   $0x4,(%rax)
  4020ff:	75 15                	jne    402116 <rio_writen+0x4a>
  402101:	b8 00 00 00 00       	mov    $0x0,%eax
  402106:	48 29 c3             	sub    %rax,%rbx
  402109:	48 01 c5             	add    %rax,%rbp
  40210c:	48 85 db             	test   %rbx,%rbx
  40210f:	75 d3                	jne    4020e4 <rio_writen+0x18>
  402111:	4c 89 e8             	mov    %r13,%rax
  402114:	eb 07                	jmp    40211d <rio_writen+0x51>
  402116:	48 c7 c0 ff ff ff ff 	mov    $0xffffffffffffffff,%rax
  40211d:	48 83 c4 08          	add    $0x8,%rsp
  402121:	5b                   	pop    %rbx
  402122:	5d                   	pop    %rbp
  402123:	41 5c                	pop    %r12
  402125:	41 5d                	pop    %r13
  402127:	c3                   	retq   

0000000000402128 <rio_read>:
  402128:	41 56                	push   %r14
  40212a:	41 55                	push   %r13
  40212c:	41 54                	push   %r12
  40212e:	55                   	push   %rbp
  40212f:	53                   	push   %rbx
  402130:	48 89 fb             	mov    %rdi,%rbx
  402133:	49 89 f5             	mov    %rsi,%r13
  402136:	49 89 d4             	mov    %rdx,%r12
  402139:	eb 2e                	jmp    402169 <rio_read+0x41>
  40213b:	48 8d 6b 10          	lea    0x10(%rbx),%rbp
  40213f:	ba 00 20 00 00       	mov    $0x2000,%edx
  402144:	48 89 ee             	mov    %rbp,%rsi
  402147:	8b 3b                	mov    (%rbx),%edi
  402149:	e8 f2 ea ff ff       	callq  400c40 <read@plt>
  40214e:	89 43 04             	mov    %eax,0x4(%rbx)
  402151:	85 c0                	test   %eax,%eax
  402153:	79 0c                	jns    402161 <rio_read+0x39>
  402155:	e8 36 ea ff ff       	callq  400b90 <__errno_location@plt>
  40215a:	83 38 04             	cmpl   $0x4,(%rax)
  40215d:	74 0a                	je     402169 <rio_read+0x41>
  40215f:	eb 3b                	jmp    40219c <rio_read+0x74>
  402161:	85 c0                	test   %eax,%eax
  402163:	74 40                	je     4021a5 <rio_read+0x7d>
  402165:	48 89 6b 08          	mov    %rbp,0x8(%rbx)
  402169:	8b 43 04             	mov    0x4(%rbx),%eax
  40216c:	85 c0                	test   %eax,%eax
  40216e:	7e cb                	jle    40213b <rio_read+0x13>
  402170:	45 89 e6             	mov    %r12d,%r14d
  402173:	89 c2                	mov    %eax,%edx
  402175:	4c 39 e2             	cmp    %r12,%rdx
  402178:	73 03                	jae    40217d <rio_read+0x55>
  40217a:	41 89 c6             	mov    %eax,%r14d
  40217d:	49 63 ee             	movslq %r14d,%rbp
  402180:	48 8b 73 08          	mov    0x8(%rbx),%rsi
  402184:	48 89 ea             	mov    %rbp,%rdx
  402187:	4c 89 ef             	mov    %r13,%rdi
  40218a:	e8 d1 ea ff ff       	callq  400c60 <memcpy@plt>
  40218f:	48 01 6b 08          	add    %rbp,0x8(%rbx)
  402193:	44 29 73 04          	sub    %r14d,0x4(%rbx)
  402197:	48 89 e8             	mov    %rbp,%rax
  40219a:	eb 0e                	jmp    4021aa <rio_read+0x82>
  40219c:	48 c7 c0 ff ff ff ff 	mov    $0xffffffffffffffff,%rax
  4021a3:	eb 05                	jmp    4021aa <rio_read+0x82>
  4021a5:	b8 00 00 00 00       	mov    $0x0,%eax
  4021aa:	5b                   	pop    %rbx
  4021ab:	5d                   	pop    %rbp
  4021ac:	41 5c                	pop    %r12
  4021ae:	41 5d                	pop    %r13
  4021b0:	41 5e                	pop    %r14
  4021b2:	c3                   	retq   

00000000004021b3 <rio_readlineb>:
  4021b3:	41 55                	push   %r13
  4021b5:	41 54                	push   %r12
  4021b7:	55                   	push   %rbp
  4021b8:	53                   	push   %rbx
  4021b9:	48 83 ec 18          	sub    $0x18,%rsp
  4021bd:	49 89 fd             	mov    %rdi,%r13
  4021c0:	48 89 f5             	mov    %rsi,%rbp
  4021c3:	49 89 d4             	mov    %rdx,%r12
  4021c6:	bb 01 00 00 00       	mov    $0x1,%ebx
  4021cb:	eb 3f                	jmp    40220c <rio_readlineb+0x59>
  4021cd:	ba 01 00 00 00       	mov    $0x1,%edx
  4021d2:	48 8d 74 24 0f       	lea    0xf(%rsp),%rsi
  4021d7:	4c 89 ef             	mov    %r13,%rdi
  4021da:	e8 49 ff ff ff       	callq  402128 <rio_read>
  4021df:	83 f8 01             	cmp    $0x1,%eax
  4021e2:	75 15                	jne    4021f9 <rio_readlineb+0x46>
  4021e4:	48 8d 45 01          	lea    0x1(%rbp),%rax
  4021e8:	0f b6 54 24 0f       	movzbl 0xf(%rsp),%edx
  4021ed:	88 55 00             	mov    %dl,0x0(%rbp)
  4021f0:	80 7c 24 0f 0a       	cmpb   $0xa,0xf(%rsp)
  4021f5:	75 0e                	jne    402205 <rio_readlineb+0x52>
  4021f7:	eb 1a                	jmp    402213 <rio_readlineb+0x60>
  4021f9:	85 c0                	test   %eax,%eax
  4021fb:	75 22                	jne    40221f <rio_readlineb+0x6c>
  4021fd:	48 83 fb 01          	cmp    $0x1,%rbx
  402201:	75 13                	jne    402216 <rio_readlineb+0x63>
  402203:	eb 23                	jmp    402228 <rio_readlineb+0x75>
  402205:	48 83 c3 01          	add    $0x1,%rbx
  402209:	48 89 c5             	mov    %rax,%rbp
  40220c:	4c 39 e3             	cmp    %r12,%rbx
  40220f:	72 bc                	jb     4021cd <rio_readlineb+0x1a>
  402211:	eb 03                	jmp    402216 <rio_readlineb+0x63>
  402213:	48 89 c5             	mov    %rax,%rbp
  402216:	c6 45 00 00          	movb   $0x0,0x0(%rbp)
  40221a:	48 89 d8             	mov    %rbx,%rax
  40221d:	eb 0e                	jmp    40222d <rio_readlineb+0x7a>
  40221f:	48 c7 c0 ff ff ff ff 	mov    $0xffffffffffffffff,%rax
  402226:	eb 05                	jmp    40222d <rio_readlineb+0x7a>
  402228:	b8 00 00 00 00       	mov    $0x0,%eax
  40222d:	48 83 c4 18          	add    $0x18,%rsp
  402231:	5b                   	pop    %rbx
  402232:	5d                   	pop    %rbp
  402233:	41 5c                	pop    %r12
  402235:	41 5d                	pop    %r13
  402237:	c3                   	retq   

0000000000402238 <submitr>:
  402238:	41 57                	push   %r15
  40223a:	41 56                	push   %r14
  40223c:	41 55                	push   %r13
  40223e:	41 54                	push   %r12
  402240:	55                   	push   %rbp
  402241:	53                   	push   %rbx
  402242:	48 81 ec 48 a0 00 00 	sub    $0xa048,%rsp
  402249:	49 89 fc             	mov    %rdi,%r12
  40224c:	89 74 24 04          	mov    %esi,0x4(%rsp)
  402250:	49 89 d7             	mov    %rdx,%r15
  402253:	49 89 ce             	mov    %rcx,%r14
  402256:	4c 89 44 24 08       	mov    %r8,0x8(%rsp)
  40225b:	4d 89 cd             	mov    %r9,%r13
  40225e:	48 8b 9c 24 80 a0 00 	mov    0xa080(%rsp),%rbx
  402265:	00 
  402266:	c7 84 24 1c 20 00 00 	movl   $0x0,0x201c(%rsp)
  40226d:	00 00 00 00 
  402271:	ba 00 00 00 00       	mov    $0x0,%edx
  402276:	be 01 00 00 00       	mov    $0x1,%esi
  40227b:	bf 02 00 00 00       	mov    $0x2,%edi
  402280:	e8 fb ea ff ff       	callq  400d80 <socket@plt>
  402285:	89 c5                	mov    %eax,%ebp
  402287:	85 c0                	test   %eax,%eax
  402289:	79 4e                	jns    4022d9 <submitr+0xa1>
  40228b:	48 b8 45 72 72 6f 72 	movabs $0x43203a726f727245,%rax
  402292:	3a 20 43 
  402295:	48 89 03             	mov    %rax,(%rbx)
  402298:	48 b8 6c 69 65 6e 74 	movabs $0x6e7520746e65696c,%rax
  40229f:	20 75 6e 
  4022a2:	48 89 43 08          	mov    %rax,0x8(%rbx)
  4022a6:	48 b8 61 62 6c 65 20 	movabs $0x206f7420656c6261,%rax
  4022ad:	74 6f 20 
  4022b0:	48 89 43 10          	mov    %rax,0x10(%rbx)
  4022b4:	48 b8 63 72 65 61 74 	movabs $0x7320657461657263,%rax
  4022bb:	65 20 73 
  4022be:	48 89 43 18          	mov    %rax,0x18(%rbx)
  4022c2:	c7 43 20 6f 63 6b 65 	movl   $0x656b636f,0x20(%rbx)
  4022c9:	66 c7 43 24 74 00    	movw   $0x74,0x24(%rbx)
  4022cf:	b8 ff ff ff ff       	mov    $0xffffffff,%eax
  4022d4:	e9 6d 06 00 00       	jmpq   402946 <submitr+0x70e>
  4022d9:	4c 89 e7             	mov    %r12,%rdi
  4022dc:	e8 9f e9 ff ff       	callq  400c80 <gethostbyname@plt>
  4022e1:	48 85 c0             	test   %rax,%rax
  4022e4:	75 67                	jne    40234d <submitr+0x115>
  4022e6:	48 b8 45 72 72 6f 72 	movabs $0x44203a726f727245,%rax
  4022ed:	3a 20 44 
  4022f0:	48 89 03             	mov    %rax,(%rbx)
  4022f3:	48 b8 4e 53 20 69 73 	movabs $0x6e7520736920534e,%rax
  4022fa:	20 75 6e 
  4022fd:	48 89 43 08          	mov    %rax,0x8(%rbx)
  402301:	48 b8 61 62 6c 65 20 	movabs $0x206f7420656c6261,%rax
  402308:	74 6f 20 
  40230b:	48 89 43 10          	mov    %rax,0x10(%rbx)
  40230f:	48 b8 72 65 73 6f 6c 	movabs $0x2065766c6f736572,%rax
  402316:	76 65 20 
  402319:	48 89 43 18          	mov    %rax,0x18(%rbx)
  40231d:	48 b8 73 65 72 76 65 	movabs $0x6120726576726573,%rax
  402324:	72 20 61 
  402327:	48 89 43 20          	mov    %rax,0x20(%rbx)
  40232b:	c7 43 28 64 64 72 65 	movl   $0x65726464,0x28(%rbx)
  402332:	66 c7 43 2c 73 73    	movw   $0x7373,0x2c(%rbx)
  402338:	c6 43 2e 00          	movb   $0x0,0x2e(%rbx)
  40233c:	89 ef                	mov    %ebp,%edi
  40233e:	e8 ed e8 ff ff       	callq  400c30 <close@plt>
  402343:	b8 ff ff ff ff       	mov    $0xffffffff,%eax
  402348:	e9 f9 05 00 00       	jmpq   402946 <submitr+0x70e>
  40234d:	48 c7 84 24 30 a0 00 	movq   $0x0,0xa030(%rsp)
  402354:	00 00 00 00 00 
  402359:	48 c7 84 24 38 a0 00 	movq   $0x0,0xa038(%rsp)
  402360:	00 00 00 00 00 
  402365:	66 c7 84 24 30 a0 00 	movw   $0x2,0xa030(%rsp)
  40236c:	00 02 00 
  40236f:	48 8b 48 18          	mov    0x18(%rax),%rcx
  402373:	48 63 50 14          	movslq 0x14(%rax),%rdx
  402377:	48 8d b4 24 34 a0 00 	lea    0xa034(%rsp),%rsi
  40237e:	00 
  40237f:	48 8b 39             	mov    (%rcx),%rdi
  402382:	e8 79 e9 ff ff       	callq  400d00 <bcopy@plt>
  402387:	0f b7 44 24 04       	movzwl 0x4(%rsp),%eax
  40238c:	66 c1 c8 08          	ror    $0x8,%ax
  402390:	66 89 84 24 32 a0 00 	mov    %ax,0xa032(%rsp)
  402397:	00 
  402398:	ba 10 00 00 00       	mov    $0x10,%edx
  40239d:	48 8d b4 24 30 a0 00 	lea    0xa030(%rsp),%rsi
  4023a4:	00 
  4023a5:	89 ef                	mov    %ebp,%edi
  4023a7:	e8 c4 e9 ff ff       	callq  400d70 <connect@plt>
  4023ac:	85 c0                	test   %eax,%eax
  4023ae:	79 59                	jns    402409 <submitr+0x1d1>
  4023b0:	48 b8 45 72 72 6f 72 	movabs $0x55203a726f727245,%rax
  4023b7:	3a 20 55 
  4023ba:	48 89 03             	mov    %rax,(%rbx)
  4023bd:	48 b8 6e 61 62 6c 65 	movabs $0x6f7420656c62616e,%rax
  4023c4:	20 74 6f 
  4023c7:	48 89 43 08          	mov    %rax,0x8(%rbx)
  4023cb:	48 b8 20 63 6f 6e 6e 	movabs $0x7463656e6e6f6320,%rax
  4023d2:	65 63 74 
  4023d5:	48 89 43 10          	mov    %rax,0x10(%rbx)
  4023d9:	48 b8 20 74 6f 20 74 	movabs $0x20656874206f7420,%rax
  4023e0:	68 65 20 
  4023e3:	48 89 43 18          	mov    %rax,0x18(%rbx)
  4023e7:	c7 43 20 73 65 72 76 	movl   $0x76726573,0x20(%rbx)
  4023ee:	66 c7 43 24 65 72    	movw   $0x7265,0x24(%rbx)
  4023f4:	c6 43 26 00          	movb   $0x0,0x26(%rbx)
  4023f8:	89 ef                	mov    %ebp,%edi
  4023fa:	e8 31 e8 ff ff       	callq  400c30 <close@plt>
  4023ff:	b8 ff ff ff ff       	mov    $0xffffffff,%eax
  402404:	e9 3d 05 00 00       	jmpq   402946 <submitr+0x70e>
  402409:	49 c7 c0 ff ff ff ff 	mov    $0xffffffffffffffff,%r8
  402410:	4c 89 ef             	mov    %r13,%rdi
  402413:	b8 00 00 00 00       	mov    $0x0,%eax
  402418:	4c 89 c1             	mov    %r8,%rcx
  40241b:	f2 ae                	repnz scas %es:(%rdi),%al
  40241d:	48 f7 d1             	not    %rcx
  402420:	48 89 ce             	mov    %rcx,%rsi
  402423:	4c 89 ff             	mov    %r15,%rdi
  402426:	4c 89 c1             	mov    %r8,%rcx
  402429:	f2 ae                	repnz scas %es:(%rdi),%al
  40242b:	48 89 ca             	mov    %rcx,%rdx
  40242e:	48 f7 d2             	not    %rdx
  402431:	4c 89 f7             	mov    %r14,%rdi
  402434:	4c 89 c1             	mov    %r8,%rcx
  402437:	f2 ae                	repnz scas %es:(%rdi),%al
  402439:	48 29 ca             	sub    %rcx,%rdx
  40243c:	48 8b 7c 24 08       	mov    0x8(%rsp),%rdi
  402441:	4c 89 c1             	mov    %r8,%rcx
  402444:	f2 ae                	repnz scas %es:(%rdi),%al
  402446:	48 29 ca             	sub    %rcx,%rdx
  402449:	48 8d 44 76 fd       	lea    -0x3(%rsi,%rsi,2),%rax
  40244e:	48 8d 44 02 7b       	lea    0x7b(%rdx,%rax,1),%rax
  402453:	48 3d 00 20 00 00    	cmp    $0x2000,%rax
  402459:	76 72                	jbe    4024cd <submitr+0x295>
  40245b:	48 b8 45 72 72 6f 72 	movabs $0x52203a726f727245,%rax
  402462:	3a 20 52 
  402465:	48 89 03             	mov    %rax,(%rbx)
  402468:	48 b8 65 73 75 6c 74 	movabs $0x747320746c757365,%rax
  40246f:	20 73 74 
  402472:	48 89 43 08          	mov    %rax,0x8(%rbx)
  402476:	48 b8 72 69 6e 67 20 	movabs $0x6f6f7420676e6972,%rax
  40247d:	74 6f 6f 
  402480:	48 89 43 10          	mov    %rax,0x10(%rbx)
  402484:	48 b8 20 6c 61 72 67 	movabs $0x202e656772616c20,%rax
  40248b:	65 2e 20 
  40248e:	48 89 43 18          	mov    %rax,0x18(%rbx)
  402492:	48 b8 49 6e 63 72 65 	movabs $0x6573616572636e49,%rax
  402499:	61 73 65 
  40249c:	48 89 43 20          	mov    %rax,0x20(%rbx)
  4024a0:	48 b8 20 53 55 42 4d 	movabs $0x5254494d42555320,%rax
  4024a7:	49 54 52 
  4024aa:	48 89 43 28          	mov    %rax,0x28(%rbx)
  4024ae:	48 b8 5f 4d 41 58 42 	movabs $0x46554258414d5f,%rax
  4024b5:	55 46 00 
  4024b8:	48 89 43 30          	mov    %rax,0x30(%rbx)
  4024bc:	89 ef                	mov    %ebp,%edi
  4024be:	e8 6d e7 ff ff       	callq  400c30 <close@plt>
  4024c3:	b8 ff ff ff ff       	mov    $0xffffffff,%eax
  4024c8:	e9 79 04 00 00       	jmpq   402946 <submitr+0x70e>
  4024cd:	48 8d b4 24 20 40 00 	lea    0x4020(%rsp),%rsi
  4024d4:	00 
  4024d5:	b9 00 04 00 00       	mov    $0x400,%ecx
  4024da:	b8 00 00 00 00       	mov    $0x0,%eax
  4024df:	48 89 f7             	mov    %rsi,%rdi
  4024e2:	f3 48 ab             	rep stos %rax,%es:(%rdi)
  4024e5:	4c 89 ef             	mov    %r13,%rdi
  4024e8:	e8 09 fb ff ff       	callq  401ff6 <urlencode>
  4024ed:	85 c0                	test   %eax,%eax
  4024ef:	0f 89 8a 00 00 00    	jns    40257f <submitr+0x347>
  4024f5:	48 b8 45 72 72 6f 72 	movabs $0x52203a726f727245,%rax
  4024fc:	3a 20 52 
  4024ff:	48 89 03             	mov    %rax,(%rbx)
  402502:	48 b8 65 73 75 6c 74 	movabs $0x747320746c757365,%rax
  402509:	20 73 74 
  40250c:	48 89 43 08          	mov    %rax,0x8(%rbx)
  402510:	48 b8 72 69 6e 67 20 	movabs $0x6e6f6320676e6972,%rax
  402517:	63 6f 6e 
  40251a:	48 89 43 10          	mov    %rax,0x10(%rbx)
  40251e:	48 b8 74 61 69 6e 73 	movabs $0x6e6120736e696174,%rax
  402525:	20 61 6e 
  402528:	48 89 43 18          	mov    %rax,0x18(%rbx)
  40252c:	48 b8 20 69 6c 6c 65 	movabs $0x6c6167656c6c6920,%rax
  402533:	67 61 6c 
  402536:	48 89 43 20          	mov    %rax,0x20(%rbx)
  40253a:	48 b8 20 6f 72 20 75 	movabs $0x72706e7520726f20,%rax
  402541:	6e 70 72 
  402544:	48 89 43 28          	mov    %rax,0x28(%rbx)
  402548:	48 b8 69 6e 74 61 62 	movabs $0x20656c6261746e69,%rax
  40254f:	6c 65 20 
  402552:	48 89 43 30          	mov    %rax,0x30(%rbx)
  402556:	48 b8 63 68 61 72 61 	movabs $0x6574636172616863,%rax
  40255d:	63 74 65 
  402560:	48 89 43 38          	mov    %rax,0x38(%rbx)
  402564:	66 c7 43 40 72 2e    	movw   $0x2e72,0x40(%rbx)
  40256a:	c6 43 42 00          	movb   $0x0,0x42(%rbx)
  40256e:	89 ef                	mov    %ebp,%edi
  402570:	e8 bb e6 ff ff       	callq  400c30 <close@plt>
  402575:	b8 ff ff ff ff       	mov    $0xffffffff,%eax
  40257a:	e9 c7 03 00 00       	jmpq   402946 <submitr+0x70e>
  40257f:	4d 89 e1             	mov    %r12,%r9
  402582:	4c 8d 84 24 20 40 00 	lea    0x4020(%rsp),%r8
  402589:	00 
  40258a:	4c 89 f9             	mov    %r15,%rcx
  40258d:	4c 89 f2             	mov    %r14,%rdx
  402590:	be a8 3d 40 00       	mov    $0x403da8,%esi
  402595:	48 8d bc 24 20 60 00 	lea    0x6020(%rsp),%rdi
  40259c:	00 
  40259d:	b8 00 00 00 00       	mov    $0x0,%eax
  4025a2:	e8 a9 e7 ff ff       	callq  400d50 <sprintf@plt>
  4025a7:	48 8d bc 24 20 60 00 	lea    0x6020(%rsp),%rdi
  4025ae:	00 
  4025af:	b8 00 00 00 00       	mov    $0x0,%eax
  4025b4:	48 c7 c1 ff ff ff ff 	mov    $0xffffffffffffffff,%rcx
  4025bb:	f2 ae                	repnz scas %es:(%rdi),%al
  4025bd:	48 f7 d1             	not    %rcx
  4025c0:	48 8d 51 ff          	lea    -0x1(%rcx),%rdx
  4025c4:	48 8d b4 24 20 60 00 	lea    0x6020(%rsp),%rsi
  4025cb:	00 
  4025cc:	89 ef                	mov    %ebp,%edi
  4025ce:	e8 f9 fa ff ff       	callq  4020cc <rio_writen>
  4025d3:	48 85 c0             	test   %rax,%rax
  4025d6:	79 6e                	jns    402646 <submitr+0x40e>
  4025d8:	48 b8 45 72 72 6f 72 	movabs $0x43203a726f727245,%rax
  4025df:	3a 20 43 
  4025e2:	48 89 03             	mov    %rax,(%rbx)
  4025e5:	48 b8 6c 69 65 6e 74 	movabs $0x6e7520746e65696c,%rax
  4025ec:	20 75 6e 
  4025ef:	48 89 43 08          	mov    %rax,0x8(%rbx)
  4025f3:	48 b8 61 62 6c 65 20 	movabs $0x206f7420656c6261,%rax
  4025fa:	74 6f 20 
  4025fd:	48 89 43 10          	mov    %rax,0x10(%rbx)
  402601:	48 b8 77 72 69 74 65 	movabs $0x6f74206574697277,%rax
  402608:	20 74 6f 
  40260b:	48 89 43 18          	mov    %rax,0x18(%rbx)
  40260f:	48 b8 20 74 68 65 20 	movabs $0x7365722065687420,%rax
  402616:	72 65 73 
  402619:	48 89 43 20          	mov    %rax,0x20(%rbx)
  40261d:	48 b8 75 6c 74 20 73 	movabs $0x7672657320746c75,%rax
  402624:	65 72 76 
  402627:	48 89 43 28          	mov    %rax,0x28(%rbx)
  40262b:	66 c7 43 30 65 72    	movw   $0x7265,0x30(%rbx)
  402631:	c6 43 32 00          	movb   $0x0,0x32(%rbx)
  402635:	89 ef                	mov    %ebp,%edi
  402637:	e8 f4 e5 ff ff       	callq  400c30 <close@plt>
  40263c:	b8 ff ff ff ff       	mov    $0xffffffff,%eax
  402641:	e9 00 03 00 00       	jmpq   402946 <submitr+0x70e>
  402646:	89 ee                	mov    %ebp,%esi
  402648:	48 8d bc 24 20 80 00 	lea    0x8020(%rsp),%rdi
  40264f:	00 
  402650:	e8 66 f9 ff ff       	callq  401fbb <rio_readinitb>
  402655:	ba 00 20 00 00       	mov    $0x2000,%edx
  40265a:	48 8d b4 24 20 60 00 	lea    0x6020(%rsp),%rsi
  402661:	00 
  402662:	48 8d bc 24 20 80 00 	lea    0x8020(%rsp),%rdi
  402669:	00 
  40266a:	e8 44 fb ff ff       	callq  4021b3 <rio_readlineb>
  40266f:	48 85 c0             	test   %rax,%rax
  402672:	7f 7d                	jg     4026f1 <submitr+0x4b9>
  402674:	48 b8 45 72 72 6f 72 	movabs $0x43203a726f727245,%rax
  40267b:	3a 20 43 
  40267e:	48 89 03             	mov    %rax,(%rbx)
  402681:	48 b8 6c 69 65 6e 74 	movabs $0x6e7520746e65696c,%rax
  402688:	20 75 6e 
  40268b:	48 89 43 08          	mov    %rax,0x8(%rbx)
  40268f:	48 b8 61 62 6c 65 20 	movabs $0x206f7420656c6261,%rax
  402696:	74 6f 20 
  402699:	48 89 43 10          	mov    %rax,0x10(%rbx)
  40269d:	48 b8 72 65 61 64 20 	movabs $0x7269662064616572,%rax
  4026a4:	66 69 72 
  4026a7:	48 89 43 18          	mov    %rax,0x18(%rbx)
  4026ab:	48 b8 73 74 20 68 65 	movabs $0x6564616568207473,%rax
  4026b2:	61 64 65 
  4026b5:	48 89 43 20          	mov    %rax,0x20(%rbx)
  4026b9:	48 b8 72 20 66 72 6f 	movabs $0x72206d6f72662072,%rax
  4026c0:	6d 20 72 
  4026c3:	48 89 43 28          	mov    %rax,0x28(%rbx)
  4026c7:	48 b8 65 73 75 6c 74 	movabs $0x657320746c757365,%rax
  4026ce:	20 73 65 
  4026d1:	48 89 43 30          	mov    %rax,0x30(%rbx)
  4026d5:	c7 43 38 72 76 65 72 	movl   $0x72657672,0x38(%rbx)
  4026dc:	c6 43 3c 00          	movb   $0x0,0x3c(%rbx)
  4026e0:	89 ef                	mov    %ebp,%edi
  4026e2:	e8 49 e5 ff ff       	callq  400c30 <close@plt>
  4026e7:	b8 ff ff ff ff       	mov    $0xffffffff,%eax
  4026ec:	e9 55 02 00 00       	jmpq   402946 <submitr+0x70e>
  4026f1:	4c 8d 44 24 10       	lea    0x10(%rsp),%r8
  4026f6:	48 8d 8c 24 1c 20 00 	lea    0x201c(%rsp),%rcx
  4026fd:	00 
  4026fe:	48 8d 94 24 20 20 00 	lea    0x2020(%rsp),%rdx
  402705:	00 
  402706:	be 1f 3e 40 00       	mov    $0x403e1f,%esi
  40270b:	48 8d bc 24 20 60 00 	lea    0x6020(%rsp),%rdi
  402712:	00 
  402713:	b8 00 00 00 00       	mov    $0x0,%eax
  402718:	e8 c3 e5 ff ff       	callq  400ce0 <__isoc99_sscanf@plt>
  40271d:	e9 98 00 00 00       	jmpq   4027ba <submitr+0x582>
  402722:	ba 00 20 00 00       	mov    $0x2000,%edx
  402727:	48 8d b4 24 20 60 00 	lea    0x6020(%rsp),%rsi
  40272e:	00 
  40272f:	48 8d bc 24 20 80 00 	lea    0x8020(%rsp),%rdi
  402736:	00 
  402737:	e8 77 fa ff ff       	callq  4021b3 <rio_readlineb>
  40273c:	48 85 c0             	test   %rax,%rax
  40273f:	7f 79                	jg     4027ba <submitr+0x582>
  402741:	48 b8 45 72 72 6f 72 	movabs $0x43203a726f727245,%rax
  402748:	3a 20 43 
  40274b:	48 89 03             	mov    %rax,(%rbx)
  40274e:	48 b8 6c 69 65 6e 74 	movabs $0x6e7520746e65696c,%rax
  402755:	20 75 6e 
  402758:	48 89 43 08          	mov    %rax,0x8(%rbx)
  40275c:	48 b8 61 62 6c 65 20 	movabs $0x206f7420656c6261,%rax
  402763:	74 6f 20 
  402766:	48 89 43 10          	mov    %rax,0x10(%rbx)
  40276a:	48 b8 72 65 61 64 20 	movabs $0x6165682064616572,%rax
  402771:	68 65 61 
  402774:	48 89 43 18          	mov    %rax,0x18(%rbx)
  402778:	48 b8 64 65 72 73 20 	movabs $0x6f72662073726564,%rax
  40277f:	66 72 6f 
  402782:	48 89 43 20          	mov    %rax,0x20(%rbx)
  402786:	48 b8 6d 20 74 68 65 	movabs $0x657220656874206d,%rax
  40278d:	20 72 65 
  402790:	48 89 43 28          	mov    %rax,0x28(%rbx)
  402794:	48 b8 73 75 6c 74 20 	movabs $0x72657320746c7573,%rax
  40279b:	73 65 72 
  40279e:	48 89 43 30          	mov    %rax,0x30(%rbx)
  4027a2:	c7 43 38 76 65 72 00 	movl   $0x726576,0x38(%rbx)
  4027a9:	89 ef                	mov    %ebp,%edi
  4027ab:	e8 80 e4 ff ff       	callq  400c30 <close@plt>
  4027b0:	b8 ff ff ff ff       	mov    $0xffffffff,%eax
  4027b5:	e9 8c 01 00 00       	jmpq   402946 <submitr+0x70e>
  4027ba:	0f b6 84 24 20 60 00 	movzbl 0x6020(%rsp),%eax
  4027c1:	00 
  4027c2:	83 e8 0d             	sub    $0xd,%eax
  4027c5:	75 15                	jne    4027dc <submitr+0x5a4>
  4027c7:	0f b6 84 24 21 60 00 	movzbl 0x6021(%rsp),%eax
  4027ce:	00 
  4027cf:	83 e8 0a             	sub    $0xa,%eax
  4027d2:	75 08                	jne    4027dc <submitr+0x5a4>
  4027d4:	0f b6 84 24 22 60 00 	movzbl 0x6022(%rsp),%eax
  4027db:	00 
  4027dc:	85 c0                	test   %eax,%eax
  4027de:	0f 85 3e ff ff ff    	jne    402722 <submitr+0x4ea>
  4027e4:	ba 00 20 00 00       	mov    $0x2000,%edx
  4027e9:	48 8d b4 24 20 60 00 	lea    0x6020(%rsp),%rsi
  4027f0:	00 
  4027f1:	48 8d bc 24 20 80 00 	lea    0x8020(%rsp),%rdi
  4027f8:	00 
  4027f9:	e8 b5 f9 ff ff       	callq  4021b3 <rio_readlineb>
  4027fe:	48 85 c0             	test   %rax,%rax
  402801:	0f 8f 83 00 00 00    	jg     40288a <submitr+0x652>
  402807:	48 b8 45 72 72 6f 72 	movabs $0x43203a726f727245,%rax
  40280e:	3a 20 43 
  402811:	48 89 03             	mov    %rax,(%rbx)
  402814:	48 b8 6c 69 65 6e 74 	movabs $0x6e7520746e65696c,%rax
  40281b:	20 75 6e 
  40281e:	48 89 43 08          	mov    %rax,0x8(%rbx)
  402822:	48 b8 61 62 6c 65 20 	movabs $0x206f7420656c6261,%rax
  402829:	74 6f 20 
  40282c:	48 89 43 10          	mov    %rax,0x10(%rbx)
  402830:	48 b8 72 65 61 64 20 	movabs $0x6174732064616572,%rax
  402837:	73 74 61 
  40283a:	48 89 43 18          	mov    %rax,0x18(%rbx)
  40283e:	48 b8 74 75 73 20 6d 	movabs $0x7373656d20737574,%rax
  402845:	65 73 73 
  402848:	48 89 43 20          	mov    %rax,0x20(%rbx)
  40284c:	48 b8 61 67 65 20 66 	movabs $0x6d6f726620656761,%rax
  402853:	72 6f 6d 
  402856:	48 89 43 28          	mov    %rax,0x28(%rbx)
  40285a:	48 b8 20 72 65 73 75 	movabs $0x20746c7573657220,%rax
  402861:	6c 74 20 
  402864:	48 89 43 30          	mov    %rax,0x30(%rbx)
  402868:	c7 43 38 73 65 72 76 	movl   $0x76726573,0x38(%rbx)
  40286f:	66 c7 43 3c 65 72    	movw   $0x7265,0x3c(%rbx)
  402875:	c6 43 3e 00          	movb   $0x0,0x3e(%rbx)
  402879:	89 ef                	mov    %ebp,%edi
  40287b:	e8 b0 e3 ff ff       	callq  400c30 <close@plt>
  402880:	b8 ff ff ff ff       	mov    $0xffffffff,%eax
  402885:	e9 bc 00 00 00       	jmpq   402946 <submitr+0x70e>
  40288a:	8b 94 24 1c 20 00 00 	mov    0x201c(%rsp),%edx
  402891:	81 fa c8 00 00 00    	cmp    $0xc8,%edx
  402897:	74 28                	je     4028c1 <submitr+0x689>
  402899:	48 8d 4c 24 10       	lea    0x10(%rsp),%rcx
  40289e:	be e8 3d 40 00       	mov    $0x403de8,%esi
  4028a3:	48 89 df             	mov    %rbx,%rdi
  4028a6:	b8 00 00 00 00       	mov    $0x0,%eax
  4028ab:	e8 a0 e4 ff ff       	callq  400d50 <sprintf@plt>
  4028b0:	89 ef                	mov    %ebp,%edi
  4028b2:	e8 79 e3 ff ff       	callq  400c30 <close@plt>
  4028b7:	b8 ff ff ff ff       	mov    $0xffffffff,%eax
  4028bc:	e9 85 00 00 00       	jmpq   402946 <submitr+0x70e>
  4028c1:	48 8d b4 24 20 60 00 	lea    0x6020(%rsp),%rsi
  4028c8:	00 
  4028c9:	48 89 df             	mov    %rbx,%rdi
  4028cc:	e8 ef e2 ff ff       	callq  400bc0 <strcpy@plt>
  4028d1:	89 ef                	mov    %ebp,%edi
  4028d3:	e8 58 e3 ff ff       	callq  400c30 <close@plt>
  4028d8:	0f b6 03             	movzbl (%rbx),%eax
  4028db:	83 e8 4f             	sub    $0x4f,%eax
  4028de:	89 c2                	mov    %eax,%edx
  4028e0:	75 18                	jne    4028fa <submitr+0x6c2>
  4028e2:	0f b6 43 01          	movzbl 0x1(%rbx),%eax
  4028e6:	83 e8 4b             	sub    $0x4b,%eax
  4028e9:	75 0f                	jne    4028fa <submitr+0x6c2>
  4028eb:	0f b6 43 02          	movzbl 0x2(%rbx),%eax
  4028ef:	83 e8 0a             	sub    $0xa,%eax
  4028f2:	75 06                	jne    4028fa <submitr+0x6c2>
  4028f4:	0f b6 43 03          	movzbl 0x3(%rbx),%eax
  4028f8:	eb 00                	jmp    4028fa <submitr+0x6c2>
  4028fa:	85 c0                	test   %eax,%eax
  4028fc:	74 3c                	je     40293a <submitr+0x702>
  4028fe:	bf 30 3e 40 00       	mov    $0x403e30,%edi
  402903:	b9 05 00 00 00       	mov    $0x5,%ecx
  402908:	48 89 de             	mov    %rbx,%rsi
  40290b:	f3 a6                	repz cmpsb %es:(%rdi),%ds:(%rsi)
  40290d:	0f 97 c0             	seta   %al
  402910:	0f 92 c1             	setb   %cl
  402913:	29 c8                	sub    %ecx,%eax
  402915:	0f be c0             	movsbl %al,%eax
  402918:	85 c0                	test   %eax,%eax
  40291a:	74 2a                	je     402946 <submitr+0x70e>
  40291c:	85 d2                	test   %edx,%edx
  40291e:	75 0f                	jne    40292f <submitr+0x6f7>
  402920:	0f b6 43 01          	movzbl 0x1(%rbx),%eax
  402924:	83 e8 4b             	sub    $0x4b,%eax
  402927:	89 c2                	mov    %eax,%edx
  402929:	75 04                	jne    40292f <submitr+0x6f7>
  40292b:	0f b6 53 02          	movzbl 0x2(%rbx),%edx
  40292f:	85 d2                	test   %edx,%edx
  402931:	75 0e                	jne    402941 <submitr+0x709>
  402933:	b8 00 00 00 00       	mov    $0x0,%eax
  402938:	eb 0c                	jmp    402946 <submitr+0x70e>
  40293a:	b8 00 00 00 00       	mov    $0x0,%eax
  40293f:	eb 05                	jmp    402946 <submitr+0x70e>
  402941:	b8 ff ff ff ff       	mov    $0xffffffff,%eax
  402946:	48 81 c4 48 a0 00 00 	add    $0xa048,%rsp
  40294d:	5b                   	pop    %rbx
  40294e:	5d                   	pop    %rbp
  40294f:	41 5c                	pop    %r12
  402951:	41 5d                	pop    %r13
  402953:	41 5e                	pop    %r14
  402955:	41 5f                	pop    %r15
  402957:	c3                   	retq   

0000000000402958 <init_timeout>:
  402958:	53                   	push   %rbx
  402959:	89 fb                	mov    %edi,%ebx
  40295b:	85 ff                	test   %edi,%edi
  40295d:	74 1f                	je     40297e <init_timeout+0x26>
  40295f:	85 ff                	test   %edi,%edi
  402961:	79 05                	jns    402968 <init_timeout+0x10>
  402963:	bb 00 00 00 00       	mov    $0x0,%ebx
  402968:	be cd 1f 40 00       	mov    $0x401fcd,%esi
  40296d:	bf 0e 00 00 00       	mov    $0xe,%edi
  402972:	e8 f9 e2 ff ff       	callq  400c70 <signal@plt>
  402977:	89 df                	mov    %ebx,%edi
  402979:	e8 a2 e2 ff ff       	callq  400c20 <alarm@plt>
  40297e:	5b                   	pop    %rbx
  40297f:	c3                   	retq   

0000000000402980 <init_driver>:
  402980:	55                   	push   %rbp
  402981:	53                   	push   %rbx
  402982:	48 83 ec 18          	sub    $0x18,%rsp
  402986:	48 89 fd             	mov    %rdi,%rbp
  402989:	be 01 00 00 00       	mov    $0x1,%esi
  40298e:	bf 0d 00 00 00       	mov    $0xd,%edi
  402993:	e8 d8 e2 ff ff       	callq  400c70 <signal@plt>
  402998:	be 01 00 00 00       	mov    $0x1,%esi
  40299d:	bf 1d 00 00 00       	mov    $0x1d,%edi
  4029a2:	e8 c9 e2 ff ff       	callq  400c70 <signal@plt>
  4029a7:	be 01 00 00 00       	mov    $0x1,%esi
  4029ac:	bf 1d 00 00 00       	mov    $0x1d,%edi
  4029b1:	e8 ba e2 ff ff       	callq  400c70 <signal@plt>
  4029b6:	ba 00 00 00 00       	mov    $0x0,%edx
  4029bb:	be 01 00 00 00       	mov    $0x1,%esi
  4029c0:	bf 02 00 00 00       	mov    $0x2,%edi
  4029c5:	e8 b6 e3 ff ff       	callq  400d80 <socket@plt>
  4029ca:	89 c3                	mov    %eax,%ebx
  4029cc:	85 c0                	test   %eax,%eax
  4029ce:	79 4f                	jns    402a1f <init_driver+0x9f>
  4029d0:	48 b8 45 72 72 6f 72 	movabs $0x43203a726f727245,%rax
  4029d7:	3a 20 43 
  4029da:	48 89 45 00          	mov    %rax,0x0(%rbp)
  4029de:	48 b8 6c 69 65 6e 74 	movabs $0x6e7520746e65696c,%rax
  4029e5:	20 75 6e 
  4029e8:	48 89 45 08          	mov    %rax,0x8(%rbp)
  4029ec:	48 b8 61 62 6c 65 20 	movabs $0x206f7420656c6261,%rax
  4029f3:	74 6f 20 
  4029f6:	48 89 45 10          	mov    %rax,0x10(%rbp)
  4029fa:	48 b8 63 72 65 61 74 	movabs $0x7320657461657263,%rax
  402a01:	65 20 73 
  402a04:	48 89 45 18          	mov    %rax,0x18(%rbp)
  402a08:	c7 45 20 6f 63 6b 65 	movl   $0x656b636f,0x20(%rbp)
  402a0f:	66 c7 45 24 74 00    	movw   $0x74,0x24(%rbp)
  402a15:	b8 ff ff ff ff       	mov    $0xffffffff,%eax
  402a1a:	e9 23 01 00 00       	jmpq   402b42 <init_driver+0x1c2>
  402a1f:	bf 88 37 40 00       	mov    $0x403788,%edi
  402a24:	e8 57 e2 ff ff       	callq  400c80 <gethostbyname@plt>
  402a29:	48 85 c0             	test   %rax,%rax
  402a2c:	75 68                	jne    402a96 <init_driver+0x116>
  402a2e:	48 b8 45 72 72 6f 72 	movabs $0x44203a726f727245,%rax
  402a35:	3a 20 44 
  402a38:	48 89 45 00          	mov    %rax,0x0(%rbp)
  402a3c:	48 b8 4e 53 20 69 73 	movabs $0x6e7520736920534e,%rax
  402a43:	20 75 6e 
  402a46:	48 89 45 08          	mov    %rax,0x8(%rbp)
  402a4a:	48 b8 61 62 6c 65 20 	movabs $0x206f7420656c6261,%rax
  402a51:	74 6f 20 
  402a54:	48 89 45 10          	mov    %rax,0x10(%rbp)
  402a58:	48 b8 72 65 73 6f 6c 	movabs $0x2065766c6f736572,%rax
  402a5f:	76 65 20 
  402a62:	48 89 45 18          	mov    %rax,0x18(%rbp)
  402a66:	48 b8 73 65 72 76 65 	movabs $0x6120726576726573,%rax
  402a6d:	72 20 61 
  402a70:	48 89 45 20          	mov    %rax,0x20(%rbp)
  402a74:	c7 45 28 64 64 72 65 	movl   $0x65726464,0x28(%rbp)
  402a7b:	66 c7 45 2c 73 73    	movw   $0x7373,0x2c(%rbp)
  402a81:	c6 45 2e 00          	movb   $0x0,0x2e(%rbp)
  402a85:	89 df                	mov    %ebx,%edi
  402a87:	e8 a4 e1 ff ff       	callq  400c30 <close@plt>
  402a8c:	b8 ff ff ff ff       	mov    $0xffffffff,%eax
  402a91:	e9 ac 00 00 00       	jmpq   402b42 <init_driver+0x1c2>
  402a96:	48 c7 04 24 00 00 00 	movq   $0x0,(%rsp)
  402a9d:	00 
  402a9e:	48 c7 44 24 08 00 00 	movq   $0x0,0x8(%rsp)
  402aa5:	00 00 
  402aa7:	66 c7 04 24 02 00    	movw   $0x2,(%rsp)
  402aad:	48 8b 48 18          	mov    0x18(%rax),%rcx
  402ab1:	48 63 50 14          	movslq 0x14(%rax),%rdx
  402ab5:	48 8d 74 24 04       	lea    0x4(%rsp),%rsi
  402aba:	48 8b 39             	mov    (%rcx),%rdi
  402abd:	e8 3e e2 ff ff       	callq  400d00 <bcopy@plt>
  402ac2:	66 c7 44 24 02 3c 9a 	movw   $0x9a3c,0x2(%rsp)
  402ac9:	ba 10 00 00 00       	mov    $0x10,%edx
  402ace:	48 89 e6             	mov    %rsp,%rsi
  402ad1:	89 df                	mov    %ebx,%edi
  402ad3:	e8 98 e2 ff ff       	callq  400d70 <connect@plt>
  402ad8:	85 c0                	test   %eax,%eax
  402ada:	79 50                	jns    402b2c <init_driver+0x1ac>
  402adc:	48 b8 45 72 72 6f 72 	movabs $0x55203a726f727245,%rax
  402ae3:	3a 20 55 
  402ae6:	48 89 45 00          	mov    %rax,0x0(%rbp)
  402aea:	48 b8 6e 61 62 6c 65 	movabs $0x6f7420656c62616e,%rax
  402af1:	20 74 6f 
  402af4:	48 89 45 08          	mov    %rax,0x8(%rbp)
  402af8:	48 b8 20 63 6f 6e 6e 	movabs $0x7463656e6e6f6320,%rax
  402aff:	65 63 74 
  402b02:	48 89 45 10          	mov    %rax,0x10(%rbp)
  402b06:	48 b8 20 74 6f 20 73 	movabs $0x76726573206f7420,%rax
  402b0d:	65 72 76 
  402b10:	48 89 45 18          	mov    %rax,0x18(%rbp)
  402b14:	66 c7 45 20 65 72    	movw   $0x7265,0x20(%rbp)
  402b1a:	c6 45 22 00          	movb   $0x0,0x22(%rbp)
  402b1e:	89 df                	mov    %ebx,%edi
  402b20:	e8 0b e1 ff ff       	callq  400c30 <close@plt>
  402b25:	b8 ff ff ff ff       	mov    $0xffffffff,%eax
  402b2a:	eb 16                	jmp    402b42 <init_driver+0x1c2>
  402b2c:	89 df                	mov    %ebx,%edi
  402b2e:	e8 fd e0 ff ff       	callq  400c30 <close@plt>
  402b33:	66 c7 45 00 4f 4b    	movw   $0x4b4f,0x0(%rbp)
  402b39:	c6 45 02 00          	movb   $0x0,0x2(%rbp)
  402b3d:	b8 00 00 00 00       	mov    $0x0,%eax
  402b42:	48 83 c4 18          	add    $0x18,%rsp
  402b46:	5b                   	pop    %rbx
  402b47:	5d                   	pop    %rbp
  402b48:	c3                   	retq   

0000000000402b49 <driver_post>:
  402b49:	53                   	push   %rbx
  402b4a:	4c 89 cb             	mov    %r9,%rbx
  402b4d:	45 85 c0             	test   %r8d,%r8d
  402b50:	74 22                	je     402b74 <driver_post+0x2b>
  402b52:	48 89 ce             	mov    %rcx,%rsi
  402b55:	bf 35 3e 40 00       	mov    $0x403e35,%edi
  402b5a:	b8 00 00 00 00       	mov    $0x0,%eax
  402b5f:	e8 9c e0 ff ff       	callq  400c00 <printf@plt>
  402b64:	66 c7 03 4f 4b       	movw   $0x4b4f,(%rbx)
  402b69:	c6 43 02 00          	movb   $0x0,0x2(%rbx)
  402b6d:	b8 00 00 00 00       	mov    $0x0,%eax
  402b72:	eb 3f                	jmp    402bb3 <driver_post+0x6a>
  402b74:	48 85 ff             	test   %rdi,%rdi
  402b77:	74 2c                	je     402ba5 <driver_post+0x5c>
  402b79:	80 3f 00             	cmpb   $0x0,(%rdi)
  402b7c:	74 27                	je     402ba5 <driver_post+0x5c>
  402b7e:	48 83 ec 08          	sub    $0x8,%rsp
  402b82:	41 51                	push   %r9
  402b84:	49 89 c9             	mov    %rcx,%r9
  402b87:	49 89 d0             	mov    %rdx,%r8
  402b8a:	48 89 f9             	mov    %rdi,%rcx
  402b8d:	48 89 f2             	mov    %rsi,%rdx
  402b90:	be 9a 3c 00 00       	mov    $0x3c9a,%esi
  402b95:	bf 88 37 40 00       	mov    $0x403788,%edi
  402b9a:	e8 99 f6 ff ff       	callq  402238 <submitr>
  402b9f:	48 83 c4 10          	add    $0x10,%rsp
  402ba3:	eb 0e                	jmp    402bb3 <driver_post+0x6a>
  402ba5:	66 c7 03 4f 4b       	movw   $0x4b4f,(%rbx)
  402baa:	c6 43 02 00          	movb   $0x0,0x2(%rbx)
  402bae:	b8 00 00 00 00       	mov    $0x0,%eax
  402bb3:	5b                   	pop    %rbx
  402bb4:	c3                   	retq   

0000000000402bb5 <check>:
  402bb5:	89 f8                	mov    %edi,%eax
  402bb7:	c1 e8 1c             	shr    $0x1c,%eax
  402bba:	85 c0                	test   %eax,%eax
  402bbc:	74 1d                	je     402bdb <check+0x26>
  402bbe:	b9 00 00 00 00       	mov    $0x0,%ecx
  402bc3:	eb 0b                	jmp    402bd0 <check+0x1b>
  402bc5:	89 f8                	mov    %edi,%eax
  402bc7:	d3 e8                	shr    %cl,%eax
  402bc9:	3c 0a                	cmp    $0xa,%al
  402bcb:	74 14                	je     402be1 <check+0x2c>
  402bcd:	83 c1 08             	add    $0x8,%ecx
  402bd0:	83 f9 1f             	cmp    $0x1f,%ecx
  402bd3:	7e f0                	jle    402bc5 <check+0x10>
  402bd5:	b8 01 00 00 00       	mov    $0x1,%eax
  402bda:	c3                   	retq   
  402bdb:	b8 00 00 00 00       	mov    $0x0,%eax
  402be0:	c3                   	retq   
  402be1:	b8 00 00 00 00       	mov    $0x0,%eax
  402be6:	c3                   	retq   

0000000000402be7 <gencookie>:
  402be7:	53                   	push   %rbx
  402be8:	83 c7 01             	add    $0x1,%edi
  402beb:	e8 b0 df ff ff       	callq  400ba0 <srandom@plt>
  402bf0:	e8 cb e0 ff ff       	callq  400cc0 <random@plt>
  402bf5:	89 c3                	mov    %eax,%ebx
  402bf7:	89 c7                	mov    %eax,%edi
  402bf9:	e8 b7 ff ff ff       	callq  402bb5 <check>
  402bfe:	85 c0                	test   %eax,%eax
  402c00:	74 ee                	je     402bf0 <gencookie+0x9>
  402c02:	89 d8                	mov    %ebx,%eax
  402c04:	5b                   	pop    %rbx
  402c05:	c3                   	retq   
  402c06:	66 2e 0f 1f 84 00 00 	nopw   %cs:0x0(%rax,%rax,1)
  402c0d:	00 00 00 

0000000000402c10 <__libc_csu_fini>:
  402c10:	f3 c3                	repz retq 
  402c12:	66 66 66 66 66 2e 0f 	data32 data32 data32 data32 nopw %cs:0x0(%rax,%rax,1)
  402c19:	1f 84 00 00 00 00 00 

0000000000402c20 <__libc_csu_init>:
  402c20:	48 89 6c 24 d8       	mov    %rbp,-0x28(%rsp)
  402c25:	4c 89 64 24 e0       	mov    %r12,-0x20(%rsp)
  402c2a:	48 8d 2d 4f 1e 20 00 	lea    0x201e4f(%rip),%rbp        # 604a80 <__init_array_end>
  402c31:	4c 8d 25 40 1e 20 00 	lea    0x201e40(%rip),%r12        # 604a78 <__frame_dummy_init_array_entry>
  402c38:	4c 89 6c 24 e8       	mov    %r13,-0x18(%rsp)
  402c3d:	4c 89 74 24 f0       	mov    %r14,-0x10(%rsp)
  402c42:	4c 89 7c 24 f8       	mov    %r15,-0x8(%rsp)
  402c47:	48 89 5c 24 d0       	mov    %rbx,-0x30(%rsp)
  402c4c:	48 83 ec 38          	sub    $0x38,%rsp
  402c50:	4c 29 e5             	sub    %r12,%rbp
  402c53:	41 89 fd             	mov    %edi,%r13d
  402c56:	49 89 f6             	mov    %rsi,%r14
  402c59:	48 c1 fd 03          	sar    $0x3,%rbp
  402c5d:	49 89 d7             	mov    %rdx,%r15
  402c60:	e8 f3 de ff ff       	callq  400b58 <_init>
  402c65:	48 85 ed             	test   %rbp,%rbp
  402c68:	74 1c                	je     402c86 <__libc_csu_init+0x66>
  402c6a:	31 db                	xor    %ebx,%ebx
  402c6c:	0f 1f 40 00          	nopl   0x0(%rax)
  402c70:	4c 89 fa             	mov    %r15,%rdx
  402c73:	4c 89 f6             	mov    %r14,%rsi
  402c76:	44 89 ef             	mov    %r13d,%edi
  402c79:	41 ff 14 dc          	callq  *(%r12,%rbx,8)
  402c7d:	48 83 c3 01          	add    $0x1,%rbx
  402c81:	48 39 eb             	cmp    %rbp,%rbx
  402c84:	72 ea                	jb     402c70 <__libc_csu_init+0x50>
  402c86:	48 8b 5c 24 08       	mov    0x8(%rsp),%rbx
  402c8b:	48 8b 6c 24 10       	mov    0x10(%rsp),%rbp
  402c90:	4c 8b 64 24 18       	mov    0x18(%rsp),%r12
  402c95:	4c 8b 6c 24 20       	mov    0x20(%rsp),%r13
  402c9a:	4c 8b 74 24 28       	mov    0x28(%rsp),%r14
  402c9f:	4c 8b 7c 24 30       	mov    0x30(%rsp),%r15
  402ca4:	48 83 c4 38          	add    $0x38,%rsp
  402ca8:	c3                   	retq   
  402ca9:	0f 1f 00             	nopl   (%rax)

Disassembly of section .fini:

0000000000402cac <_fini>:
  402cac:	48 83 ec 08          	sub    $0x8,%rsp
  402cb0:	48 83 c4 08          	add    $0x8,%rsp
  402cb4:	c3                   	retq   
